LIBRARY Redox.exe
EXPORTS
??$Parse@VDebugOptions@node@@VOptions@2@@options_parser@node@@YAXQEAV?$vector@V?$basic_string@DU?$char_traits@D@__1@std@@V?$allocator@D@23@@__1@std@@V?$allocator@V?$basic_string@DU?$char_traits@D@__1@std@@V?$allocator@D@23@@__1@std@@@23@@__1@std@@00QEAVDebugOptions@1@W4OptionEnvvarSettings@01@0@Z
??0?$__vector_base@UCpuProfileDeoptFrame@v8@@V?$allocator@UCpuProfileDeoptFrame@v8@@@__1@std@@@__1@std@@IEAA@$$QEAV?$allocator@UCpuProfileDeoptFrame@v8@@@12@@Z
??0?$__vector_base@UCpuProfileDeoptFrame@v8@@V?$allocator@UCpuProfileDeoptFrame@v8@@@__1@std@@@__1@std@@IEAA@AEBV?$allocator@UCpuProfileDeoptFrame@v8@@@12@@Z
??0?$__vector_base@UCpuProfileDeoptFrame@v8@@V?$allocator@UCpuProfileDeoptFrame@v8@@@__1@std@@@__1@std@@IEAA@XZ
??0?$__vector_base@UCpuProfileDeoptInfo@v8@@V?$allocator@UCpuProfileDeoptInfo@v8@@@__1@std@@@__1@std@@IEAA@$$QEAV?$allocator@UCpuProfileDeoptInfo@v8@@@12@@Z
??0?$__vector_base@UCpuProfileDeoptInfo@v8@@V?$allocator@UCpuProfileDeoptInfo@v8@@@__1@std@@@__1@std@@IEAA@AEBV?$allocator@UCpuProfileDeoptInfo@v8@@@12@@Z
??0?$__vector_base@UCpuProfileDeoptInfo@v8@@V?$allocator@UCpuProfileDeoptInfo@v8@@@__1@std@@@__1@std@@IEAA@XZ
??0?$enable_shared_from_this@VCounters@V8Inspector@v8_inspector@@@__1@std@@IEAA@AEBV012@@Z
??0?$enable_shared_from_this@VCounters@V8Inspector@v8_inspector@@@__1@std@@IEAA@XZ
??0?$MemorySpan@$$CBE@v8@@QEAA@PEBE_K@Z
??0?$MemorySpan@$$CBE@v8@@QEAA@XZ
??0?$OptionsParser@VDebugOptions@node@@@options_parser@node@@QEAA@AEBV012@@Z
??0?$OptionsParser@VDebugOptions@node@@@options_parser@node@@QEAA@XZ
??0?$vector@UCpuProfileDeoptFrame@v8@@V?$allocator@UCpuProfileDeoptFrame@v8@@@__1@std@@@__1@std@@QEAA@$$QEAV012@@Z
??0?$vector@UCpuProfileDeoptFrame@v8@@V?$allocator@UCpuProfileDeoptFrame@v8@@@__1@std@@@__1@std@@QEAA@$$QEAV012@AEBV?$allocator@UCpuProfileDeoptFrame@v8@@@12@@Z
??0?$vector@UCpuProfileDeoptFrame@v8@@V?$allocator@UCpuProfileDeoptFrame@v8@@@__1@std@@@__1@std@@QEAA@_K@Z
??0?$vector@UCpuProfileDeoptFrame@v8@@V?$allocator@UCpuProfileDeoptFrame@v8@@@__1@std@@@__1@std@@QEAA@_KAEBUCpuProfileDeoptFrame@v8@@@Z
??0?$vector@UCpuProfileDeoptFrame@v8@@V?$allocator@UCpuProfileDeoptFrame@v8@@@__1@std@@@__1@std@@QEAA@_KAEBUCpuProfileDeoptFrame@v8@@AEBV?$allocator@UCpuProfileDeoptFrame@v8@@@12@@Z
??0?$vector@UCpuProfileDeoptFrame@v8@@V?$allocator@UCpuProfileDeoptFrame@v8@@@__1@std@@@__1@std@@QEAA@_KAEBV?$allocator@UCpuProfileDeoptFrame@v8@@@12@@Z
??0?$vector@UCpuProfileDeoptFrame@v8@@V?$allocator@UCpuProfileDeoptFrame@v8@@@__1@std@@@__1@std@@QEAA@AEBV012@@Z
??0?$vector@UCpuProfileDeoptFrame@v8@@V?$allocator@UCpuProfileDeoptFrame@v8@@@__1@std@@@__1@std@@QEAA@AEBV012@AEBV?$allocator@UCpuProfileDeoptFrame@v8@@@12@@Z
??0?$vector@UCpuProfileDeoptFrame@v8@@V?$allocator@UCpuProfileDeoptFrame@v8@@@__1@std@@@__1@std@@QEAA@AEBV?$allocator@UCpuProfileDeoptFrame@v8@@@12@@Z
??0?$vector@UCpuProfileDeoptFrame@v8@@V?$allocator@UCpuProfileDeoptFrame@v8@@@__1@std@@@__1@std@@QEAA@V?$initializer_list@UCpuProfileDeoptFrame@v8@@@2@@Z
??0?$vector@UCpuProfileDeoptFrame@v8@@V?$allocator@UCpuProfileDeoptFrame@v8@@@__1@std@@@__1@std@@QEAA@V?$initializer_list@UCpuProfileDeoptFrame@v8@@@2@AEBV?$allocator@UCpuProfileDeoptFrame@v8@@@12@@Z
??0?$vector@UCpuProfileDeoptFrame@v8@@V?$allocator@UCpuProfileDeoptFrame@v8@@@__1@std@@@__1@std@@QEAA@XZ
??0?$vector@UCpuProfileDeoptInfo@v8@@V?$allocator@UCpuProfileDeoptInfo@v8@@@__1@std@@@__1@std@@QEAA@$$QEAV012@@Z
??0?$vector@UCpuProfileDeoptInfo@v8@@V?$allocator@UCpuProfileDeoptInfo@v8@@@__1@std@@@__1@std@@QEAA@$$QEAV012@AEBV?$allocator@UCpuProfileDeoptInfo@v8@@@12@@Z
??0?$vector@UCpuProfileDeoptInfo@v8@@V?$allocator@UCpuProfileDeoptInfo@v8@@@__1@std@@@__1@std@@QEAA@_K@Z
??0?$vector@UCpuProfileDeoptInfo@v8@@V?$allocator@UCpuProfileDeoptInfo@v8@@@__1@std@@@__1@std@@QEAA@_KAEBUCpuProfileDeoptInfo@v8@@@Z
??0?$vector@UCpuProfileDeoptInfo@v8@@V?$allocator@UCpuProfileDeoptInfo@v8@@@__1@std@@@__1@std@@QEAA@_KAEBUCpuProfileDeoptInfo@v8@@AEBV?$allocator@UCpuProfileDeoptInfo@v8@@@12@@Z
??0?$vector@UCpuProfileDeoptInfo@v8@@V?$allocator@UCpuProfileDeoptInfo@v8@@@__1@std@@@__1@std@@QEAA@_KAEBV?$allocator@UCpuProfileDeoptInfo@v8@@@12@@Z
??0?$vector@UCpuProfileDeoptInfo@v8@@V?$allocator@UCpuProfileDeoptInfo@v8@@@__1@std@@@__1@std@@QEAA@AEBV012@@Z
??0?$vector@UCpuProfileDeoptInfo@v8@@V?$allocator@UCpuProfileDeoptInfo@v8@@@__1@std@@@__1@std@@QEAA@AEBV012@AEBV?$allocator@UCpuProfileDeoptInfo@v8@@@12@@Z
??0?$vector@UCpuProfileDeoptInfo@v8@@V?$allocator@UCpuProfileDeoptInfo@v8@@@__1@std@@@__1@std@@QEAA@AEBV?$allocator@UCpuProfileDeoptInfo@v8@@@12@@Z
??0?$vector@UCpuProfileDeoptInfo@v8@@V?$allocator@UCpuProfileDeoptInfo@v8@@@__1@std@@@__1@std@@QEAA@V?$initializer_list@UCpuProfileDeoptInfo@v8@@@2@@Z
??0?$vector@UCpuProfileDeoptInfo@v8@@V?$allocator@UCpuProfileDeoptInfo@v8@@@__1@std@@@__1@std@@QEAA@V?$initializer_list@UCpuProfileDeoptInfo@v8@@@2@AEBV?$allocator@UCpuProfileDeoptInfo@v8@@@12@@Z
??0?$vector@UCpuProfileDeoptInfo@v8@@V?$allocator@UCpuProfileDeoptInfo@v8@@@__1@std@@@__1@std@@QEAA@XZ
??0ActivityControl@v8@@QEAA@AEBV01@@Z
??0ActivityControl@v8@@QEAA@XZ
??0Agent@inspector@node@@QEAA@PEAVEnvironment@2@@Z
??0AllocationProfile@v8@@QEAA@AEBV01@@Z
??0AllocationProfile@v8@@QEAA@XZ
??0Allocator@ArrayBuffer@v8@@QEAA@AEBV012@@Z
??0Allocator@ArrayBuffer@v8@@QEAA@XZ
??0AllowJavascriptExecutionScope@Isolate@v8@@QEAA@PEAV12@@Z
??0ArrayBufferAllocator@node@@QEAA@$$QEAV01@@Z
??0ArrayBufferAllocator@node@@QEAA@AEBV01@@Z
??0ArrayBufferAllocator@node@@QEAA@XZ
??0AsyncResource@node@@QEAA@PEAVIsolate@v8@@V?$Local@VObject@v8@@@3@PEBDN@Z
??0BackupIncumbentScope@Context@v8@@QEAA@V?$Local@VContext@v8@@@2@@Z
??0CachedData@ScriptCompiler@v8@@QEAA@PEBEHW4BufferPolicy@012@@Z
??0CachedData@ScriptCompiler@v8@@QEAA@XZ
??0CallbackScope@AsyncResource@node@@QEAA@PEAV12@@Z
??0CallbackScope@node@@QEAA@PEAVIsolate@v8@@V?$Local@VObject@v8@@@3@Uasync_context@1@@Z
??0Channel@V8Inspector@v8_inspector@@QEAA@AEBV012@@Z
??0Channel@V8Inspector@v8_inspector@@QEAA@XZ
??0CodeEventHandler@v8@@QEAA@PEAVIsolate@1@@Z
??0CompiledWasmModule@v8@@AEAA@V?$shared_ptr@VNativeModule@wasm@internal@v8@@@__1@std@@@Z
??0CompiledWasmModule@v8@@QEAA@$$QEAV01@@Z
??0CompiledWasmModule@v8@@QEAA@AEBV01@@Z
??0Contents@ArrayBuffer@v8@@AEAA@PEAX_K01W4AllocationMode@Allocator@12@P6AX010@Z0@Z
??0Contents@ArrayBuffer@v8@@QEAA@XZ
??0Contents@SharedArrayBuffer@v8@@AEAA@PEAX_K01W4AllocationMode@Allocator@ArrayBuffer@2@P6AX010@Z0@Z
??0Contents@SharedArrayBuffer@v8@@QEAA@XZ
??0Counters@V8Inspector@v8_inspector@@QEAA@AEBV012@@Z
??0Counters@V8Inspector@v8_inspector@@QEAA@PEAVIsolate@v8@@@Z
??0CpuProfileDeoptInfo@v8@@QEAA@$$QEAU01@@Z
??0CpuProfileDeoptInfo@v8@@QEAA@AEBU01@@Z
??0CpuProfileDeoptInfo@v8@@QEAA@XZ
??0CpuProfilingOptions@v8@@QEAA@$$QEAV01@@Z
??0CpuProfilingOptions@v8@@QEAA@AEBV01@@Z
??0CpuProfilingOptions@v8@@QEAA@W4CpuProfilingMode@1@IHV?$MaybeLocal@VContext@v8@@@1@@Z
??0DebugOptions@node@@QEAA@$$QEAV01@@Z
??0DebugOptions@node@@QEAA@AEBV01@@Z
??0DebugOptions@node@@QEAA@XZ
??0DebugOptionsParser@options_parser@node@@QEAA@$$QEAV012@@Z
??0DebugOptionsParser@options_parser@node@@QEAA@AEBV012@@Z
??0DebugOptionsParser@options_parser@node@@QEAA@XZ
??0Delegate@ValueDeserializer@v8@@QEAA@AEBV012@@Z
??0Delegate@ValueDeserializer@v8@@QEAA@XZ
??0Delegate@ValueSerializer@v8@@QEAA@AEBV012@@Z
??0Delegate@ValueSerializer@v8@@QEAA@XZ
??0DisallowJavascriptExecutionScope@Isolate@v8@@QEAA@PEAV12@W4OnFailure@012@@Z
??0Domain@API@Schema@protocol@v8_inspector@@QEAA@$$QEAV01234@@Z
??0Domain@API@Schema@protocol@v8_inspector@@QEAA@AEBV01234@@Z
??0Domain@API@Schema@protocol@v8_inspector@@QEAA@XZ
??0EmbedderGraph@v8@@QEAA@AEBV01@@Z
??0EmbedderGraph@v8@@QEAA@XZ
??0EmbedderHeapTracer@v8@@QEAA@AEBV01@@Z
??0EmbedderHeapTracer@v8@@QEAA@XZ
??0EscapableHandleScope@v8@@QEAA@PEAVIsolate@1@@Z
??0Exported@protocol@v8_inspector@@QEAA@AEBV012@@Z
??0Exported@protocol@v8_inspector@@QEAA@XZ
??0Extension@v8@@QEAA@PEBD0HPEAPEBDH@Z
??0ExtensionConfiguration@v8@@QEAA@HQEAPEBD@Z
??0ExtensionConfiguration@v8@@QEAA@XZ
??0ExternalOneByteStringResource@String@v8@@IEAA@XZ
??0ExternalResourceVisitor@v8@@QEAA@AEBV01@@Z
??0ExternalResourceVisitor@v8@@QEAA@XZ
??0ExternalSourceStream@ScriptCompiler@v8@@QEAA@AEBV012@@Z
??0ExternalSourceStream@ScriptCompiler@v8@@QEAA@XZ
??0ExternalStringResource@String@v8@@IEAA@XZ
??0ExternalStringResourceBase@String@v8@@IEAA@XZ
??0HandleScope@v8@@QEAA@PEAVIsolate@1@@Z
??0HeapCodeStatistics@v8@@QEAA@XZ
??0HeapObjectStatistics@v8@@QEAA@XZ
??0HeapSpaceStatistics@v8@@QEAA@XZ
??0HeapStatistics@v8@@QEAA@XZ
??0Inspectable@V8InspectorSession@v8_inspector@@QEAA@AEBV012@@Z
??0Inspectable@V8InspectorSession@v8_inspector@@QEAA@XZ
??0InternalCallbackScope@node@@QEAA@PEAVAsyncWrap@1@@Z
??0InternalCallbackScope@node@@QEAA@PEAVEnvironment@1@V?$Local@VObject@v8@@@v8@@AEBUasync_context@1@W4ResourceExpectation@01@@Z
??0Location@v8@@QEAA@HH@Z
??0Locker@v8@@QEAA@PEAVIsolate@1@@Z
??0MicrotaskQueue@v8@@AEAA@XZ
??0MicrotasksScope@v8@@QEAA@PEAVIsolate@1@PEAVMicrotaskQueue@1@W4Type@01@@Z
??0MicrotasksScope@v8@@QEAA@PEAVIsolate@1@W4Type@01@@Z
??0MultiIsolatePlatform@node@@QEAA@AEBV01@@Z
??0MultiIsolatePlatform@node@@QEAA@XZ
??0Options@node@@QEAA@AEBV01@@Z
??0Options@node@@QEAA@XZ
??0OSROptimizedCodeCache@internal@v8@@IEAA@_K@Z
??0OSROptimizedCodeCache@internal@v8@@QEAA@XZ
??0OutputStream@v8@@QEAA@AEBV01@@Z
??0OutputStream@v8@@QEAA@XZ
??0PersistentHandleVisitor@v8@@QEAA@AEBV01@@Z
??0PersistentHandleVisitor@v8@@QEAA@XZ
??0PropertyDescriptor@v8@@QEAA@V?$Local@VValue@v8@@@1@0@Z
??0PropertyDescriptor@v8@@QEAA@V?$Local@VValue@v8@@@1@@Z
??0PropertyDescriptor@v8@@QEAA@V?$Local@VValue@v8@@@1@_N@Z
??0PropertyDescriptor@v8@@QEAA@XZ
??0RemoteObject@API@Runtime@protocol@v8_inspector@@QEAA@$$QEAV01234@@Z
??0RemoteObject@API@Runtime@protocol@v8_inspector@@QEAA@AEBV01234@@Z
??0RemoteObject@API@Runtime@protocol@v8_inspector@@QEAA@XZ
??0ResourceConstraints@v8@@QEAA@XZ
??0SafeForTerminationScope@Isolate@v8@@QEAA@PEAV12@@Z
??0Scope@Isolate@v8@@QEAA@PEAV12@@Z
??0ScriptStreamingTask@ScriptCompiler@v8@@AEAA@PEAUScriptStreamingData@internal@2@@Z
??0SealHandleScope@v8@@QEAA@PEAVIsolate@1@@Z
??0SearchMatch@API@Debugger@protocol@v8_inspector@@QEAA@$$QEAV01234@@Z
??0SearchMatch@API@Debugger@protocol@v8_inspector@@QEAA@AEBV01234@@Z
??0SearchMatch@API@Debugger@protocol@v8_inspector@@QEAA@XZ
??0SharedMemoryStatistics@v8@@QEAA@XZ
??0SnapshotCreator@v8@@QEAA@PEAVIsolate@1@PEB_JPEAVStartupData@1@@Z
??0SnapshotCreator@v8@@QEAA@PEB_JPEAVStartupData@1@@Z
??0StackTrace@API@Runtime@protocol@v8_inspector@@QEAA@$$QEAV01234@@Z
??0StackTrace@API@Runtime@protocol@v8_inspector@@QEAA@AEBV01234@@Z
??0StackTrace@API@Runtime@protocol@v8_inspector@@QEAA@XZ
??0StackTraceId@API@Runtime@protocol@v8_inspector@@QEAA@$$QEAV01234@@Z
??0StackTraceId@API@Runtime@protocol@v8_inspector@@QEAA@AEBV01234@@Z
??0StackTraceId@API@Runtime@protocol@v8_inspector@@QEAA@XZ
??0StreamedSource@ScriptCompiler@v8@@QEAA@PEAVExternalSourceStream@12@W4Encoding@012@@Z
??0StreamedSource@ScriptCompiler@v8@@QEAA@V?$unique_ptr@VExternalSourceStream@ScriptCompiler@v8@@U?$default_delete@VExternalSourceStream@ScriptCompiler@v8@@@__1@std@@@__1@std@@W4Encoding@012@@Z
??0String16@v8_inspector@@QEAA@PEBG@Z
??0StringBuffer@v8_inspector@@QEAA@AEBV01@@Z
??0StringBuffer@v8_inspector@@QEAA@XZ
??0StringView@v8_inspector@@QEAA@PEBE_K@Z
??0StringView@v8_inspector@@QEAA@PEBG_K@Z
??0StringView@v8_inspector@@QEAA@XZ
??0SuppressMicrotaskExecutionScope@Isolate@v8@@QEAA@PEAV12@PEAVMicrotaskQueue@2@@Z
??0TickSample@internal@v8@@QEAA@XZ
??0TracedGlobalHandleVisitor@EmbedderHeapTracer@v8@@QEAA@AEBV012@@Z
??0TracedGlobalHandleVisitor@EmbedderHeapTracer@v8@@QEAA@XZ
??0TryCatch@v8@@QEAA@PEAVIsolate@1@@Z
??0Unlocker@v8@@QEAA@PEAVIsolate@1@@Z
??0Utf8Value@String@v8@@QEAA@PEAVIsolate@2@V?$Local@VValue@v8@@@2@@Z
??0Utf8Value@String@v8@@QEAA@V?$Local@VValue@v8@@@2@@Z
??0V8ContextInfo@v8_inspector@@QEAA@V?$Local@VContext@v8@@@v8@@HAEBVStringView@1@@Z
??0V8Inspector@v8_inspector@@QEAA@AEBV01@@Z
??0V8Inspector@v8_inspector@@QEAA@XZ
??0V8InspectorClient@v8_inspector@@QEAA@AEBV01@@Z
??0V8InspectorClient@v8_inspector@@QEAA@XZ
??0V8InspectorSession@v8_inspector@@QEAA@AEBV01@@Z
??0V8InspectorSession@v8_inspector@@QEAA@XZ
??0V8StackTrace@v8_inspector@@QEAA@AEBV01@@Z
??0V8StackTrace@v8_inspector@@QEAA@XZ
??0V8StackTraceId@v8_inspector@@QEAA@_KU?$pair@_J_J@__1@std@@@Z
??0V8StackTraceId@v8_inspector@@QEAA@_KU?$pair@_J_J@__1@std@@_N@Z
??0V8StackTraceId@v8_inspector@@QEAA@AEBVStringView@1@@Z
??0V8StackTraceId@v8_inspector@@QEAA@XZ
??0Value@String@v8@@QEAA@PEAVIsolate@2@V?$Local@VValue@v8@@@2@@Z
??0Value@String@v8@@QEAA@V?$Local@VValue@v8@@@2@@Z
??0ValueDeserializer@v8@@QEAA@PEAVIsolate@1@PEBE_K@Z
??0ValueDeserializer@v8@@QEAA@PEAVIsolate@1@PEBE_KPEAVDelegate@01@@Z
??0ValueSerializer@v8@@QEAA@PEAVIsolate@1@@Z
??0ValueSerializer@v8@@QEAA@PEAVIsolate@1@PEAVDelegate@01@@Z
??0WasmModuleObjectBuilderStreaming@v8@@AEAA@$$QEAV01@@Z
??0WasmModuleObjectBuilderStreaming@v8@@QEAA@PEAVIsolate@1@@Z
??0WasmStreaming@v8@@QEAA@V?$unique_ptr@VWasmStreamingImpl@WasmStreaming@v8@@U?$default_delete@VWasmStreamingImpl@WasmStreaming@v8@@@__1@std@@@__1@std@@@Z
??1?$__vector_base@UCpuProfileDeoptFrame@v8@@V?$allocator@UCpuProfileDeoptFrame@v8@@@__1@std@@@__1@std@@IEAA@XZ
??1?$__vector_base@UCpuProfileDeoptInfo@v8@@V?$allocator@UCpuProfileDeoptInfo@v8@@@__1@std@@@__1@std@@IEAA@XZ
??1?$enable_shared_from_this@VCounters@V8Inspector@v8_inspector@@@__1@std@@IEAA@XZ
??1?$OptionsParser@VDebugOptions@node@@@options_parser@node@@UEAA@XZ
??1?$vector@UCpuProfileDeoptFrame@v8@@V?$allocator@UCpuProfileDeoptFrame@v8@@@__1@std@@@__1@std@@QEAA@XZ
??1?$vector@UCpuProfileDeoptInfo@v8@@V?$allocator@UCpuProfileDeoptInfo@v8@@@__1@std@@@__1@std@@QEAA@XZ
??1ActivityControl@v8@@UEAA@XZ
??1Agent@inspector@node@@QEAA@XZ
??1AllocationProfile@v8@@UEAA@XZ
??1Allocator@ArrayBuffer@v8@@UEAA@XZ
??1AllowJavascriptExecutionScope@Isolate@v8@@QEAA@XZ
??1ArrayBufferAllocator@node@@UEAA@XZ
??1AsyncResource@node@@UEAA@XZ
??1BackingStore@v8@@QEAA@XZ
??1BackupIncumbentScope@Context@v8@@QEAA@XZ
??1CachedData@ScriptCompiler@v8@@QEAA@XZ
??1CallbackScope@AsyncResource@node@@QEAA@XZ
??1CallbackScope@node@@QEAA@XZ
??1Channel@V8Inspector@v8_inspector@@UEAA@XZ
??1CodeEventHandler@v8@@UEAA@XZ
??1CompiledWasmModule@v8@@QEAA@XZ
??1Counters@V8Inspector@v8_inspector@@QEAA@XZ
??1CpuProfileDeoptInfo@v8@@QEAA@XZ
??1CpuProfilingOptions@v8@@QEAA@XZ
??1DebugOptions@node@@UEAA@XZ
??1DebugOptionsParser@options_parser@node@@UEAA@XZ
??1Delegate@ValueDeserializer@v8@@UEAA@XZ
??1Delegate@ValueSerializer@v8@@UEAA@XZ
??1DisallowJavascriptExecutionScope@Isolate@v8@@QEAA@XZ
??1Domain@API@Schema@protocol@v8_inspector@@UEAA@XZ
??1EmbedderGraph@v8@@UEAA@XZ
??1EmbedderHeapTracer@v8@@UEAA@XZ
??1EscapableHandleScope@v8@@QEAA@XZ
??1Exported@protocol@v8_inspector@@UEAA@XZ
??1Extension@v8@@UEAA@XZ
??1ExternalOneByteStringResource@String@v8@@UEAA@XZ
??1ExternalResourceVisitor@v8@@UEAA@XZ
??1ExternalSourceStream@ScriptCompiler@v8@@UEAA@XZ
??1ExternalStringResource@String@v8@@UEAA@XZ
??1ExternalStringResourceBase@String@v8@@UEAA@XZ
??1HandleScope@v8@@QEAA@XZ
??1Inspectable@V8InspectorSession@v8_inspector@@UEAA@XZ
??1InternalCallbackScope@node@@QEAA@XZ
??1Locker@v8@@QEAA@XZ
??1MicrotaskQueue@v8@@UEAA@XZ
??1MicrotasksScope@v8@@QEAA@XZ
??1MultiIsolatePlatform@node@@UEAA@XZ
??1Options@node@@UEAA@XZ
??1OutputStream@v8@@UEAA@XZ
??1PersistentHandleVisitor@v8@@UEAA@XZ
??1PropertyDescriptor@v8@@QEAA@XZ
??1RemoteObject@API@Runtime@protocol@v8_inspector@@UEAA@XZ
??1SafeForTerminationScope@Isolate@v8@@QEAA@XZ
??1Scope@Isolate@v8@@QEAA@XZ
??1SealHandleScope@v8@@QEAA@XZ
??1SearchMatch@API@Debugger@protocol@v8_inspector@@UEAA@XZ
??1SnapshotCreator@v8@@QEAA@XZ
??1StackTrace@API@Runtime@protocol@v8_inspector@@UEAA@XZ
??1StackTraceId@API@Runtime@protocol@v8_inspector@@UEAA@XZ
??1StreamedSource@ScriptCompiler@v8@@QEAA@XZ
??1StringBuffer@v8_inspector@@UEAA@XZ
??1SuppressMicrotaskExecutionScope@Isolate@v8@@QEAA@XZ
??1TracedGlobalHandleVisitor@EmbedderHeapTracer@v8@@UEAA@XZ
??1TryCatch@v8@@QEAA@XZ
??1Unlocker@v8@@QEAA@XZ
??1Utf8Value@String@v8@@QEAA@XZ
??1V8Inspector@v8_inspector@@UEAA@XZ
??1V8InspectorClient@v8_inspector@@UEAA@XZ
??1V8InspectorSession@v8_inspector@@UEAA@XZ
??1V8StackTrace@v8_inspector@@UEAA@XZ
??1Value@String@v8@@QEAA@XZ
??1ValueDeserializer@v8@@QEAA@XZ
??1ValueSerializer@v8@@QEAA@XZ
??1WasmModuleObjectBuilderStreaming@v8@@QEAA@XZ
??1WasmStreaming@v8@@QEAA@XZ
??2EscapableHandleScope@v8@@CAPEAX_K@Z
??2HandleScope@v8@@CAPEAX_K@Z
??2SealHandleScope@v8@@CAPEAX_K@Z
??2TryCatch@v8@@CAPEAX_K@Z
??3EscapableHandleScope@v8@@CAXPEAX_K@Z
??3HandleScope@v8@@CAXPEAX_K@Z
??3SealHandleScope@v8@@CAXPEAX_K@Z
??3TryCatch@v8@@CAXPEAX_K@Z
??4?$__vector_base@UCpuProfileDeoptFrame@v8@@V?$allocator@UCpuProfileDeoptFrame@v8@@@__1@std@@@__1@std@@QEAAAEAV012@AEBV012@@Z
??4?$__vector_base@UCpuProfileDeoptInfo@v8@@V?$allocator@UCpuProfileDeoptInfo@v8@@@__1@std@@@__1@std@@QEAAAEAV012@AEBV012@@Z
??4?$enable_shared_from_this@VCounters@V8Inspector@v8_inspector@@@__1@std@@IEAAAEAV012@AEBV012@@Z
??4?$MemorySpan@$$CBE@v8@@QEAAAEAV01@$$QEAV01@@Z
??4?$MemorySpan@$$CBE@v8@@QEAAAEAV01@AEBV01@@Z
??4?$OptionsParser@VDebugOptions@node@@@options_parser@node@@QEAAAEAV012@AEBV012@@Z
??4?$vector@UCpuProfileDeoptFrame@v8@@V?$allocator@UCpuProfileDeoptFrame@v8@@@__1@std@@@__1@std@@QEAAAEAV012@$$QEAV012@@Z
??4?$vector@UCpuProfileDeoptFrame@v8@@V?$allocator@UCpuProfileDeoptFrame@v8@@@__1@std@@@__1@std@@QEAAAEAV012@AEBV012@@Z
??4?$vector@UCpuProfileDeoptFrame@v8@@V?$allocator@UCpuProfileDeoptFrame@v8@@@__1@std@@@__1@std@@QEAAAEAV012@V?$initializer_list@UCpuProfileDeoptFrame@v8@@@2@@Z
??4?$vector@UCpuProfileDeoptInfo@v8@@V?$allocator@UCpuProfileDeoptInfo@v8@@@__1@std@@@__1@std@@QEAAAEAV012@$$QEAV012@@Z
??4?$vector@UCpuProfileDeoptInfo@v8@@V?$allocator@UCpuProfileDeoptInfo@v8@@@__1@std@@@__1@std@@QEAAAEAV012@AEBV012@@Z
??4?$vector@UCpuProfileDeoptInfo@v8@@V?$allocator@UCpuProfileDeoptInfo@v8@@@__1@std@@@__1@std@@QEAAAEAV012@V?$initializer_list@UCpuProfileDeoptInfo@v8@@@2@@Z
??4AccessorSignature@v8@@QEAAAEAV01@$$QEAV01@@Z
??4AccessorSignature@v8@@QEAAAEAV01@AEBV01@@Z
??4ActivityControl@v8@@QEAAAEAV01@AEBV01@@Z
??4AllocationProfile@v8@@QEAAAEAV01@AEBV01@@Z
??4Allocator@ArrayBuffer@v8@@QEAAAEAV012@AEBV012@@Z
??4Array@v8@@QEAAAEAV01@$$QEAV01@@Z
??4Array@v8@@QEAAAEAV01@AEBV01@@Z
??4ArrayBuffer@v8@@QEAAAEAV01@$$QEAV01@@Z
??4ArrayBuffer@v8@@QEAAAEAV01@AEBV01@@Z
??4ArrayBufferAllocator@node@@QEAAAEAV01@$$QEAV01@@Z
??4ArrayBufferAllocator@node@@QEAAAEAV01@AEBV01@@Z
??4ArrayBufferView@v8@@QEAAAEAV01@$$QEAV01@@Z
??4ArrayBufferView@v8@@QEAAAEAV01@AEBV01@@Z
??4AtomicsWaitWakeHandle@Isolate@v8@@QEAAAEAV012@$$QEAV012@@Z
??4AtomicsWaitWakeHandle@Isolate@v8@@QEAAAEAV012@AEBV012@@Z
??4BackingStore@v8@@QEAAAEAV01@AEBV01@@Z
??4BackupIncumbentScope@Context@v8@@QEAAAEAV012@AEBV012@@Z
??4BigInt64Array@v8@@QEAAAEAV01@$$QEAV01@@Z
??4BigInt64Array@v8@@QEAAAEAV01@AEBV01@@Z
??4BigInt@v8@@QEAAAEAV01@$$QEAV01@@Z
??4BigInt@v8@@QEAAAEAV01@AEBV01@@Z
??4BigIntObject@v8@@QEAAAEAV01@$$QEAV01@@Z
??4BigIntObject@v8@@QEAAAEAV01@AEBV01@@Z
??4BigUint64Array@v8@@QEAAAEAV01@$$QEAV01@@Z
??4BigUint64Array@v8@@QEAAAEAV01@AEBV01@@Z
??4Boolean@v8@@QEAAAEAV01@$$QEAV01@@Z
??4Boolean@v8@@QEAAAEAV01@AEBV01@@Z
??4BooleanObject@v8@@QEAAAEAV01@$$QEAV01@@Z
??4BooleanObject@v8@@QEAAAEAV01@AEBV01@@Z
??4Channel@V8Inspector@v8_inspector@@QEAAAEAV012@AEBV012@@Z
??4CodeEvent@v8@@QEAAAEAV01@$$QEAV01@@Z
??4CodeEvent@v8@@QEAAAEAV01@AEBV01@@Z
??4Contents@ArrayBuffer@v8@@QEAAAEAV012@$$QEAV012@@Z
??4Contents@ArrayBuffer@v8@@QEAAAEAV012@AEBV012@@Z
??4Contents@SharedArrayBuffer@v8@@QEAAAEAV012@$$QEAV012@@Z
??4Contents@SharedArrayBuffer@v8@@QEAAAEAV012@AEBV012@@Z
??4Context@v8@@QEAAAEAV01@$$QEAV01@@Z
??4Context@v8@@QEAAAEAV01@AEBV01@@Z
??4Counters@V8Inspector@v8_inspector@@QEAAAEAV012@AEBV012@@Z
??4CpuProfile@v8@@QEAAAEAV01@$$QEAV01@@Z
??4CpuProfile@v8@@QEAAAEAV01@AEBV01@@Z
??4CpuProfileDeoptInfo@v8@@QEAAAEAU01@$$QEAU01@@Z
??4CpuProfileDeoptInfo@v8@@QEAAAEAU01@AEBU01@@Z
??4CpuProfileNode@v8@@QEAAAEAV01@$$QEAV01@@Z
??4CpuProfileNode@v8@@QEAAAEAV01@AEBV01@@Z
??4CpuProfilingOptions@v8@@QEAAAEAV01@$$QEAV01@@Z
??4CpuProfilingOptions@v8@@QEAAAEAV01@AEBV01@@Z
??4Data@v8@@QEAAAEAV01@$$QEAV01@@Z
??4Data@v8@@QEAAAEAV01@AEBV01@@Z
??4DataView@v8@@QEAAAEAV01@$$QEAV01@@Z
??4DataView@v8@@QEAAAEAV01@AEBV01@@Z
??4Date@v8@@QEAAAEAV01@$$QEAV01@@Z
??4Date@v8@@QEAAAEAV01@AEBV01@@Z
??4DebugOptions@node@@QEAAAEAV01@$$QEAV01@@Z
??4DebugOptions@node@@QEAAAEAV01@AEBV01@@Z
??4DebugOptionsParser@options_parser@node@@QEAAAEAV012@$$QEAV012@@Z
??4DebugOptionsParser@options_parser@node@@QEAAAEAV012@AEBV012@@Z
??4Delegate@ValueDeserializer@v8@@QEAAAEAV012@AEBV012@@Z
??4Delegate@ValueSerializer@v8@@QEAAAEAV012@AEBV012@@Z
??4Domain@API@Schema@protocol@v8_inspector@@QEAAAEAV01234@$$QEAV01234@@Z
??4Domain@API@Schema@protocol@v8_inspector@@QEAAAEAV01234@AEBV01234@@Z
??4EmbedderGraph@v8@@QEAAAEAV01@AEBV01@@Z
??4EmbedderHeapTracer@v8@@QEAAAEAV01@AEBV01@@Z
??4Exception@v8@@QEAAAEAV01@$$QEAV01@@Z
??4Exception@v8@@QEAAAEAV01@AEBV01@@Z
??4Exported@protocol@v8_inspector@@QEAAAEAV012@AEBV012@@Z
??4External@v8@@QEAAAEAV01@$$QEAV01@@Z
??4External@v8@@QEAAAEAV01@AEBV01@@Z
??4ExternalResourceVisitor@v8@@QEAAAEAV01@AEBV01@@Z
??4ExternalSourceStream@ScriptCompiler@v8@@QEAAAEAV012@AEBV012@@Z
??4FinalizationGroup@v8@@QEAAAEAV01@$$QEAV01@@Z
??4FinalizationGroup@v8@@QEAAAEAV01@AEBV01@@Z
??4Float32Array@v8@@QEAAAEAV01@$$QEAV01@@Z
??4Float32Array@v8@@QEAAAEAV01@AEBV01@@Z
??4Float64Array@v8@@QEAAAEAV01@$$QEAV01@@Z
??4Float64Array@v8@@QEAAAEAV01@AEBV01@@Z
??4Function@v8@@QEAAAEAV01@$$QEAV01@@Z
??4Function@v8@@QEAAAEAV01@AEBV01@@Z
??4FunctionTemplate@v8@@QEAAAEAV01@$$QEAV01@@Z
??4FunctionTemplate@v8@@QEAAAEAV01@AEBV01@@Z
??4HeapCodeStatistics@v8@@QEAAAEAV01@$$QEAV01@@Z
??4HeapCodeStatistics@v8@@QEAAAEAV01@AEBV01@@Z
??4HeapGraphEdge@v8@@QEAAAEAV01@$$QEAV01@@Z
??4HeapGraphEdge@v8@@QEAAAEAV01@AEBV01@@Z
??4HeapGraphNode@v8@@QEAAAEAV01@$$QEAV01@@Z
??4HeapGraphNode@v8@@QEAAAEAV01@AEBV01@@Z
??4HeapObjectStatistics@v8@@QEAAAEAV01@$$QEAV01@@Z
??4HeapObjectStatistics@v8@@QEAAAEAV01@AEBV01@@Z
??4HeapSnapshot@v8@@QEAAAEAV01@$$QEAV01@@Z
??4HeapSnapshot@v8@@QEAAAEAV01@AEBV01@@Z
??4HeapSpaceStatistics@v8@@QEAAAEAV01@$$QEAV01@@Z
??4HeapSpaceStatistics@v8@@QEAAAEAV01@AEBV01@@Z
??4HeapStatistics@v8@@QEAAAEAV01@$$QEAV01@@Z
??4HeapStatistics@v8@@QEAAAEAV01@AEBV01@@Z
??4Inspectable@V8InspectorSession@v8_inspector@@QEAAAEAV012@AEBV012@@Z
??4Int16Array@v8@@QEAAAEAV01@$$QEAV01@@Z
??4Int16Array@v8@@QEAAAEAV01@AEBV01@@Z
??4Int32@v8@@QEAAAEAV01@$$QEAV01@@Z
??4Int32@v8@@QEAAAEAV01@AEBV01@@Z
??4Int32Array@v8@@QEAAAEAV01@$$QEAV01@@Z
??4Int32Array@v8@@QEAAAEAV01@AEBV01@@Z
??4Int8Array@v8@@QEAAAEAV01@$$QEAV01@@Z
??4Int8Array@v8@@QEAAAEAV01@AEBV01@@Z
??4Integer@v8@@QEAAAEAV01@$$QEAV01@@Z
??4Integer@v8@@QEAAAEAV01@AEBV01@@Z
??4JSON@v8@@QEAAAEAV01@$$QEAV01@@Z
??4JSON@v8@@QEAAAEAV01@AEBV01@@Z
??4Location@v8@@QEAAAEAV01@$$QEAV01@@Z
??4Location@v8@@QEAAAEAV01@AEBV01@@Z
??4Map@v8@@QEAAAEAV01@$$QEAV01@@Z
??4Map@v8@@QEAAAEAV01@AEBV01@@Z
??4Message@v8@@QEAAAEAV01@$$QEAV01@@Z
??4Message@v8@@QEAAAEAV01@AEBV01@@Z
??4Module@v8@@QEAAAEAV01@$$QEAV01@@Z
??4Module@v8@@QEAAAEAV01@AEBV01@@Z
??4MultiIsolatePlatform@node@@QEAAAEAV01@AEBV01@@Z
??4Name@v8@@QEAAAEAV01@$$QEAV01@@Z
??4Name@v8@@QEAAAEAV01@AEBV01@@Z
??4NativeModuleEnv@native_module@node@@QEAAAEAV012@$$QEAV012@@Z
??4NativeModuleEnv@native_module@node@@QEAAAEAV012@AEBV012@@Z
??4Number@v8@@QEAAAEAV01@$$QEAV01@@Z
??4Number@v8@@QEAAAEAV01@AEBV01@@Z
??4NumberObject@v8@@QEAAAEAV01@$$QEAV01@@Z
??4NumberObject@v8@@QEAAAEAV01@AEBV01@@Z
??4Object@v8@@QEAAAEAV01@$$QEAV01@@Z
??4Object@v8@@QEAAAEAV01@AEBV01@@Z
??4ObjectTemplate@v8@@QEAAAEAV01@$$QEAV01@@Z
??4ObjectTemplate@v8@@QEAAAEAV01@AEBV01@@Z
??4Options@node@@QEAAAEAV01@AEBV01@@Z
??4OSROptimizedCodeCache@internal@v8@@QEAAAEAV012@$$QEAV012@@Z
??4OSROptimizedCodeCache@internal@v8@@QEAAAEAV012@AEBV012@@Z
??4OutputStream@v8@@QEAAAEAV01@AEBV01@@Z
??4PersistentHandleVisitor@v8@@QEAAAEAV01@AEBV01@@Z
??4Primitive@v8@@QEAAAEAV01@$$QEAV01@@Z
??4Primitive@v8@@QEAAAEAV01@AEBV01@@Z
??4PrimitiveArray@v8@@QEAAAEAV01@$$QEAV01@@Z
??4PrimitiveArray@v8@@QEAAAEAV01@AEBV01@@Z
??4Private@v8@@QEAAAEAV01@$$QEAV01@@Z
??4Private@v8@@QEAAAEAV01@AEBV01@@Z
??4Promise@v8@@QEAAAEAV01@$$QEAV01@@Z
??4Promise@v8@@QEAAAEAV01@AEBV01@@Z
??4Proxy@v8@@QEAAAEAV01@$$QEAV01@@Z
??4Proxy@v8@@QEAAAEAV01@AEBV01@@Z
??4RegExp@v8@@QEAAAEAV01@$$QEAV01@@Z
??4RegExp@v8@@QEAAAEAV01@AEBV01@@Z
??4RemoteObject@API@Runtime@protocol@v8_inspector@@QEAAAEAV01234@$$QEAV01234@@Z
??4RemoteObject@API@Runtime@protocol@v8_inspector@@QEAAAEAV01234@AEBV01234@@Z
??4Resolver@Promise@v8@@QEAAAEAV012@$$QEAV012@@Z
??4Resolver@Promise@v8@@QEAAAEAV012@AEBV012@@Z
??4ResourceConstraints@v8@@QEAAAEAV01@$$QEAV01@@Z
??4ResourceConstraints@v8@@QEAAAEAV01@AEBV01@@Z
??4Script@v8@@QEAAAEAV01@$$QEAV01@@Z
??4Script@v8@@QEAAAEAV01@AEBV01@@Z
??4ScriptCompiler@v8@@QEAAAEAV01@$$QEAV01@@Z
??4ScriptCompiler@v8@@QEAAAEAV01@AEBV01@@Z
??4ScriptOrModule@v8@@QEAAAEAV01@$$QEAV01@@Z
??4ScriptOrModule@v8@@QEAAAEAV01@AEBV01@@Z
??4ScriptStreamingTask@ScriptCompiler@v8@@QEAAAEAV012@$$QEAV012@@Z
??4ScriptStreamingTask@ScriptCompiler@v8@@QEAAAEAV012@AEBV012@@Z
??4SearchMatch@API@Debugger@protocol@v8_inspector@@QEAAAEAV01234@$$QEAV01234@@Z
??4SearchMatch@API@Debugger@protocol@v8_inspector@@QEAAAEAV01234@AEBV01234@@Z
??4Set@v8@@QEAAAEAV01@$$QEAV01@@Z
??4Set@v8@@QEAAAEAV01@AEBV01@@Z
??4SharedArrayBuffer@v8@@QEAAAEAV01@$$QEAV01@@Z
??4SharedArrayBuffer@v8@@QEAAAEAV01@AEBV01@@Z
??4SharedMemoryStatistics@v8@@QEAAAEAV01@$$QEAV01@@Z
??4SharedMemoryStatistics@v8@@QEAAAEAV01@AEBV01@@Z
??4Signature@v8@@QEAAAEAV01@$$QEAV01@@Z
??4Signature@v8@@QEAAAEAV01@AEBV01@@Z
??4StackFrame@v8@@QEAAAEAV01@$$QEAV01@@Z
??4StackFrame@v8@@QEAAAEAV01@AEBV01@@Z
??4StackTrace@API@Runtime@protocol@v8_inspector@@QEAAAEAV01234@$$QEAV01234@@Z
??4StackTrace@API@Runtime@protocol@v8_inspector@@QEAAAEAV01234@AEBV01234@@Z
??4StackTrace@v8@@QEAAAEAV01@$$QEAV01@@Z
??4StackTrace@v8@@QEAAAEAV01@AEBV01@@Z
??4StackTraceId@API@Runtime@protocol@v8_inspector@@QEAAAEAV01234@$$QEAV01234@@Z
??4StackTraceId@API@Runtime@protocol@v8_inspector@@QEAAAEAV01234@AEBV01234@@Z
??4StartupData@v8@@QEAAAEAV01@$$QEAV01@@Z
??4StartupData@v8@@QEAAAEAV01@AEBV01@@Z
??4String@v8@@QEAAAEAV01@$$QEAV01@@Z
??4String@v8@@QEAAAEAV01@AEBV01@@Z
??4StringBuffer@v8_inspector@@QEAAAEAV01@AEBV01@@Z
??4StringObject@v8@@QEAAAEAV01@$$QEAV01@@Z
??4StringObject@v8@@QEAAAEAV01@AEBV01@@Z
??4StringView@v8_inspector@@QEAAAEAV01@$$QEAV01@@Z
??4StringView@v8_inspector@@QEAAAEAV01@AEBV01@@Z
??4Symbol@v8@@QEAAAEAV01@$$QEAV01@@Z
??4Symbol@v8@@QEAAAEAV01@AEBV01@@Z
??4SymbolObject@v8@@QEAAAEAV01@$$QEAV01@@Z
??4SymbolObject@v8@@QEAAAEAV01@AEBV01@@Z
??4Template@v8@@QEAAAEAV01@$$QEAV01@@Z
??4Template@v8@@QEAAAEAV01@AEBV01@@Z
??4Testing@v8@@QEAAAEAV01@$$QEAV01@@Z
??4Testing@v8@@QEAAAEAV01@AEBV01@@Z
??4TickSample@internal@v8@@QEAAAEAU012@$$QEAU012@@Z
??4TickSample@internal@v8@@QEAAAEAU012@AEBU012@@Z
??4TracedGlobalHandleVisitor@EmbedderHeapTracer@v8@@QEAAAEAV012@AEBV012@@Z
??4TraceEventHelper@tracing@node@@QEAAAEAV012@$$QEAV012@@Z
??4TraceEventHelper@tracing@node@@QEAAAEAV012@AEBV012@@Z
??4TypedArray@v8@@QEAAAEAV01@$$QEAV01@@Z
??4TypedArray@v8@@QEAAAEAV01@AEBV01@@Z
??4Uint16Array@v8@@QEAAAEAV01@$$QEAV01@@Z
??4Uint16Array@v8@@QEAAAEAV01@AEBV01@@Z
??4Uint32@v8@@QEAAAEAV01@$$QEAV01@@Z
??4Uint32@v8@@QEAAAEAV01@AEBV01@@Z
??4Uint32Array@v8@@QEAAAEAV01@$$QEAV01@@Z
??4Uint32Array@v8@@QEAAAEAV01@AEBV01@@Z
??4Uint8Array@v8@@QEAAAEAV01@$$QEAV01@@Z
??4Uint8Array@v8@@QEAAAEAV01@AEBV01@@Z
??4Uint8ClampedArray@v8@@QEAAAEAV01@$$QEAV01@@Z
??4Uint8ClampedArray@v8@@QEAAAEAV01@AEBV01@@Z
??4UnboundModuleScript@v8@@QEAAAEAV01@$$QEAV01@@Z
??4UnboundModuleScript@v8@@QEAAAEAV01@AEBV01@@Z
??4UnboundScript@v8@@QEAAAEAV01@$$QEAV01@@Z
??4UnboundScript@v8@@QEAAAEAV01@AEBV01@@Z
??4Unlocker@v8@@QEAAAEAV01@AEBV01@@Z
??4Unwinder@v8@@QEAAAEAV01@$$QEAV01@@Z
??4Unwinder@v8@@QEAAAEAV01@AEBV01@@Z
??4V8@v8@@QEAAAEAV01@$$QEAV01@@Z
??4V8@v8@@QEAAAEAV01@AEBV01@@Z
??4V8Inspector@v8_inspector@@QEAAAEAV01@AEBV01@@Z
??4V8InspectorClient@v8_inspector@@QEAAAEAV01@AEBV01@@Z
??4V8InspectorSession@v8_inspector@@QEAAAEAV01@AEBV01@@Z
??4V8StackTrace@v8_inspector@@QEAAAEAV01@AEBV01@@Z
??4V8StackTraceId@v8_inspector@@QEAAAEAU01@$$QEAU01@@Z
??4V8StackTraceId@v8_inspector@@QEAAAEAU01@AEBU01@@Z
??4Value@v8@@QEAAAEAV01@$$QEAV01@@Z
??4Value@v8@@QEAAAEAV01@AEBV01@@Z
??4Version@internal@v8@@QEAAAEAV012@$$QEAV012@@Z
??4Version@internal@v8@@QEAAAEAV012@AEBV012@@Z
??4WasmModuleObject@v8@@QEAAAEAV01@$$QEAV01@@Z
??4WasmModuleObject@v8@@QEAAAEAV01@AEBV01@@Z
??4WasmModuleObjectBuilderStreaming@v8@@AEAAAEAV01@$$QEAV01@@Z
??_7?$OptionsParser@VDebugOptions@node@@@options_parser@node@@6B@
??_7ActivityControl@v8@@6B@
??_7AllocationProfile@v8@@6B@
??_7Allocator@ArrayBuffer@v8@@6B@
??_7ArrayBufferAllocator@node@@6B@
??_7AsyncResource@node@@6B@
??_7Channel@V8Inspector@v8_inspector@@6B@
??_7CodeEventHandler@v8@@6B@
??_7DebugOptions@node@@6B@
??_7DebugOptionsParser@options_parser@node@@6B@
??_7Delegate@ValueDeserializer@v8@@6B@
??_7Delegate@ValueSerializer@v8@@6B@
??_7Domain@API@Schema@protocol@v8_inspector@@6B@
??_7EmbedderGraph@v8@@6B@
??_7EmbedderHeapTracer@v8@@6B@
??_7Exported@protocol@v8_inspector@@6B@
??_7Extension@v8@@6B@
??_7ExternalOneByteStringResource@String@v8@@6B@
??_7ExternalResourceVisitor@v8@@6B@
??_7ExternalSourceStream@ScriptCompiler@v8@@6B@
??_7ExternalStringResource@String@v8@@6B@
??_7ExternalStringResourceBase@String@v8@@6B@
??_7Inspectable@V8InspectorSession@v8_inspector@@6B@
??_7MicrotaskQueue@v8@@6B@
??_7MultiIsolatePlatform@node@@6B@
??_7Options@node@@6B@
??_7OutputStream@v8@@6B@
??_7PersistentHandleVisitor@v8@@6B@
??_7RemoteObject@API@Runtime@protocol@v8_inspector@@6B@
??_7SearchMatch@API@Debugger@protocol@v8_inspector@@6B@
??_7StackTrace@API@Runtime@protocol@v8_inspector@@6B@
??_7StackTraceId@API@Runtime@protocol@v8_inspector@@6B@
??_7StringBuffer@v8_inspector@@6B@
??_7TracedGlobalHandleVisitor@EmbedderHeapTracer@v8@@6B@
??_7V8Inspector@v8_inspector@@6B@
??_7V8InspectorClient@v8_inspector@@6B@
??_7V8InspectorSession@v8_inspector@@6B@
??_7V8StackTrace@v8_inspector@@6B@
??_FCpuProfilingOptions@v8@@QEAAXXZ
??_FSnapshotCreator@v8@@QEAAXXZ
??_UEscapableHandleScope@v8@@CAPEAX_K@Z
??_UHandleScope@v8@@CAPEAX_K@Z
??_USealHandleScope@v8@@CAPEAX_K@Z
??_UTryCatch@v8@@CAPEAX_K@Z
??_VEscapableHandleScope@v8@@CAXPEAX_K@Z
??_VHandleScope@v8@@CAXPEAX_K@Z
??_VSealHandleScope@v8@@CAXPEAX_K@Z
??_VTryCatch@v8@@CAXPEAX_K@Z
??A?$vector@UCpuProfileDeoptFrame@v8@@V?$allocator@UCpuProfileDeoptFrame@v8@@@__1@std@@@__1@std@@QEAAAEAUCpuProfileDeoptFrame@v8@@_K@Z
??A?$vector@UCpuProfileDeoptFrame@v8@@V?$allocator@UCpuProfileDeoptFrame@v8@@@__1@std@@@__1@std@@QEBAAEBUCpuProfileDeoptFrame@v8@@_K@Z
??A?$vector@UCpuProfileDeoptInfo@v8@@V?$allocator@UCpuProfileDeoptInfo@v8@@@__1@std@@@__1@std@@QEAAAEAUCpuProfileDeoptInfo@v8@@_K@Z
??A?$vector@UCpuProfileDeoptInfo@v8@@V?$allocator@UCpuProfileDeoptInfo@v8@@@__1@std@@@__1@std@@QEBAAEBUCpuProfileDeoptInfo@v8@@_K@Z
??DUtf8Value@String@v8@@QEAAPEADXZ
??DUtf8Value@String@v8@@QEBAPEBDXZ
??DValue@String@v8@@QEAAPEAGXZ
??DValue@String@v8@@QEBAPEBGXZ
?__alloc@?$__vector_base@UCpuProfileDeoptFrame@v8@@V?$allocator@UCpuProfileDeoptFrame@v8@@@__1@std@@@__1@std@@IEAAAEAV?$allocator@UCpuProfileDeoptFrame@v8@@@23@XZ
?__alloc@?$__vector_base@UCpuProfileDeoptFrame@v8@@V?$allocator@UCpuProfileDeoptFrame@v8@@@__1@std@@@__1@std@@IEBAAEBV?$allocator@UCpuProfileDeoptFrame@v8@@@23@XZ
?__alloc@?$__vector_base@UCpuProfileDeoptInfo@v8@@V?$allocator@UCpuProfileDeoptInfo@v8@@@__1@std@@@__1@std@@IEAAAEAV?$allocator@UCpuProfileDeoptInfo@v8@@@23@XZ
?__alloc@?$__vector_base@UCpuProfileDeoptInfo@v8@@V?$allocator@UCpuProfileDeoptInfo@v8@@@__1@std@@@__1@std@@IEBAAEBV?$allocator@UCpuProfileDeoptInfo@v8@@@23@XZ
?__annotate_contiguous_container@?$vector@UCpuProfileDeoptFrame@v8@@V?$allocator@UCpuProfileDeoptFrame@v8@@@__1@std@@@__1@std@@AEBAXPEBX000@Z
?__annotate_contiguous_container@?$vector@UCpuProfileDeoptInfo@v8@@V?$allocator@UCpuProfileDeoptInfo@v8@@@__1@std@@@__1@std@@AEBAXPEBX000@Z
?__annotate_delete@?$vector@UCpuProfileDeoptFrame@v8@@V?$allocator@UCpuProfileDeoptFrame@v8@@@__1@std@@@__1@std@@AEBAXXZ
?__annotate_delete@?$vector@UCpuProfileDeoptInfo@v8@@V?$allocator@UCpuProfileDeoptInfo@v8@@@__1@std@@@__1@std@@AEBAXXZ
?__annotate_increase@?$vector@UCpuProfileDeoptFrame@v8@@V?$allocator@UCpuProfileDeoptFrame@v8@@@__1@std@@@__1@std@@AEBAX_K@Z
?__annotate_increase@?$vector@UCpuProfileDeoptInfo@v8@@V?$allocator@UCpuProfileDeoptInfo@v8@@@__1@std@@@__1@std@@AEBAX_K@Z
?__annotate_new@?$vector@UCpuProfileDeoptFrame@v8@@V?$allocator@UCpuProfileDeoptFrame@v8@@@__1@std@@@__1@std@@AEBAX_K@Z
?__annotate_new@?$vector@UCpuProfileDeoptInfo@v8@@V?$allocator@UCpuProfileDeoptInfo@v8@@@__1@std@@@__1@std@@AEBAX_K@Z
?__annotate_shrink@?$vector@UCpuProfileDeoptFrame@v8@@V?$allocator@UCpuProfileDeoptFrame@v8@@@__1@std@@@__1@std@@AEBAX_K@Z
?__annotate_shrink@?$vector@UCpuProfileDeoptInfo@v8@@V?$allocator@UCpuProfileDeoptInfo@v8@@@__1@std@@@__1@std@@AEBAX_K@Z
?__append@?$vector@UCpuProfileDeoptFrame@v8@@V?$allocator@UCpuProfileDeoptFrame@v8@@@__1@std@@@__1@std@@AEAAX_K@Z
?__append@?$vector@UCpuProfileDeoptFrame@v8@@V?$allocator@UCpuProfileDeoptFrame@v8@@@__1@std@@@__1@std@@AEAAX_KAEBUCpuProfileDeoptFrame@v8@@@Z
?__append@?$vector@UCpuProfileDeoptInfo@v8@@V?$allocator@UCpuProfileDeoptInfo@v8@@@__1@std@@@__1@std@@AEAAX_K@Z
?__append@?$vector@UCpuProfileDeoptInfo@v8@@V?$allocator@UCpuProfileDeoptInfo@v8@@@__1@std@@@__1@std@@AEAAX_KAEBUCpuProfileDeoptInfo@v8@@@Z
?__construct_at_end@?$vector@UCpuProfileDeoptFrame@v8@@V?$allocator@UCpuProfileDeoptFrame@v8@@@__1@std@@@__1@std@@AEAAX_K@Z
?__construct_at_end@?$vector@UCpuProfileDeoptFrame@v8@@V?$allocator@UCpuProfileDeoptFrame@v8@@@__1@std@@@__1@std@@AEAAX_KAEBUCpuProfileDeoptFrame@v8@@@Z
?__construct_at_end@?$vector@UCpuProfileDeoptInfo@v8@@V?$allocator@UCpuProfileDeoptInfo@v8@@@__1@std@@@__1@std@@AEAAX_K@Z
?__construct_at_end@?$vector@UCpuProfileDeoptInfo@v8@@V?$allocator@UCpuProfileDeoptInfo@v8@@@__1@std@@@__1@std@@AEAAX_KAEBUCpuProfileDeoptInfo@v8@@@Z
?__copy_assign_alloc@?$__vector_base@UCpuProfileDeoptFrame@v8@@V?$allocator@UCpuProfileDeoptFrame@v8@@@__1@std@@@__1@std@@AEAAXAEBV123@U?$integral_constant@_N$00@23@@Z
?__copy_assign_alloc@?$__vector_base@UCpuProfileDeoptFrame@v8@@V?$allocator@UCpuProfileDeoptFrame@v8@@@__1@std@@@__1@std@@AEAAXAEBV123@U?$integral_constant@_N$0A@@23@@Z
?__copy_assign_alloc@?$__vector_base@UCpuProfileDeoptFrame@v8@@V?$allocator@UCpuProfileDeoptFrame@v8@@@__1@std@@@__1@std@@IEAAXAEBV123@@Z
?__copy_assign_alloc@?$__vector_base@UCpuProfileDeoptInfo@v8@@V?$allocator@UCpuProfileDeoptInfo@v8@@@__1@std@@@__1@std@@AEAAXAEBV123@U?$integral_constant@_N$00@23@@Z
?__copy_assign_alloc@?$__vector_base@UCpuProfileDeoptInfo@v8@@V?$allocator@UCpuProfileDeoptInfo@v8@@@__1@std@@@__1@std@@AEAAXAEBV123@U?$integral_constant@_N$0A@@23@@Z
?__copy_assign_alloc@?$__vector_base@UCpuProfileDeoptInfo@v8@@V?$allocator@UCpuProfileDeoptInfo@v8@@@__1@std@@@__1@std@@IEAAXAEBV123@@Z
?__destruct_at_end@?$__vector_base@UCpuProfileDeoptFrame@v8@@V?$allocator@UCpuProfileDeoptFrame@v8@@@__1@std@@@__1@std@@IEAAXPEAUCpuProfileDeoptFrame@v8@@@Z
?__destruct_at_end@?$__vector_base@UCpuProfileDeoptInfo@v8@@V?$allocator@UCpuProfileDeoptInfo@v8@@@__1@std@@@__1@std@@IEAAXPEAUCpuProfileDeoptInfo@v8@@@Z
?__destruct_at_end@?$vector@UCpuProfileDeoptFrame@v8@@V?$allocator@UCpuProfileDeoptFrame@v8@@@__1@std@@@__1@std@@AEAAXPEAUCpuProfileDeoptFrame@v8@@@Z
?__destruct_at_end@?$vector@UCpuProfileDeoptInfo@v8@@V?$allocator@UCpuProfileDeoptInfo@v8@@@__1@std@@@__1@std@@AEAAXPEAUCpuProfileDeoptInfo@v8@@@Z
?__end_cap@?$__vector_base@UCpuProfileDeoptFrame@v8@@V?$allocator@UCpuProfileDeoptFrame@v8@@@__1@std@@@__1@std@@IEAAAEAPEAUCpuProfileDeoptFrame@v8@@XZ
?__end_cap@?$__vector_base@UCpuProfileDeoptFrame@v8@@V?$allocator@UCpuProfileDeoptFrame@v8@@@__1@std@@@__1@std@@IEBAAEBQEAUCpuProfileDeoptFrame@v8@@XZ
?__end_cap@?$__vector_base@UCpuProfileDeoptInfo@v8@@V?$allocator@UCpuProfileDeoptInfo@v8@@@__1@std@@@__1@std@@IEAAAEAPEAUCpuProfileDeoptInfo@v8@@XZ
?__end_cap@?$__vector_base@UCpuProfileDeoptInfo@v8@@V?$allocator@UCpuProfileDeoptInfo@v8@@@__1@std@@@__1@std@@IEBAAEBQEAUCpuProfileDeoptInfo@v8@@XZ
?__invalidate_all_iterators@?$vector@UCpuProfileDeoptFrame@v8@@V?$allocator@UCpuProfileDeoptFrame@v8@@@__1@std@@@__1@std@@AEAAXXZ
?__invalidate_all_iterators@?$vector@UCpuProfileDeoptInfo@v8@@V?$allocator@UCpuProfileDeoptInfo@v8@@@__1@std@@@__1@std@@AEAAXXZ
?__invalidate_iterators_past@?$vector@UCpuProfileDeoptFrame@v8@@V?$allocator@UCpuProfileDeoptFrame@v8@@@__1@std@@@__1@std@@AEAAXPEAUCpuProfileDeoptFrame@v8@@@Z
?__invalidate_iterators_past@?$vector@UCpuProfileDeoptInfo@v8@@V?$allocator@UCpuProfileDeoptInfo@v8@@@__1@std@@@__1@std@@AEAAXPEAUCpuProfileDeoptInfo@v8@@@Z
?__invariants@?$vector@UCpuProfileDeoptFrame@v8@@V?$allocator@UCpuProfileDeoptFrame@v8@@@__1@std@@@__1@std@@QEBA_NXZ
?__invariants@?$vector@UCpuProfileDeoptInfo@v8@@V?$allocator@UCpuProfileDeoptInfo@v8@@@__1@std@@@__1@std@@QEBA_NXZ
?__make_iter@?$vector@UCpuProfileDeoptFrame@v8@@V?$allocator@UCpuProfileDeoptFrame@v8@@@__1@std@@@__1@std@@AEAA?AV?$__wrap_iter@PEAUCpuProfileDeoptFrame@v8@@@23@PEAUCpuProfileDeoptFrame@v8@@@Z
?__make_iter@?$vector@UCpuProfileDeoptFrame@v8@@V?$allocator@UCpuProfileDeoptFrame@v8@@@__1@std@@@__1@std@@AEBA?AV?$__wrap_iter@PEBUCpuProfileDeoptFrame@v8@@@23@PEBUCpuProfileDeoptFrame@v8@@@Z
?__make_iter@?$vector@UCpuProfileDeoptInfo@v8@@V?$allocator@UCpuProfileDeoptInfo@v8@@@__1@std@@@__1@std@@AEAA?AV?$__wrap_iter@PEAUCpuProfileDeoptInfo@v8@@@23@PEAUCpuProfileDeoptInfo@v8@@@Z
?__make_iter@?$vector@UCpuProfileDeoptInfo@v8@@V?$allocator@UCpuProfileDeoptInfo@v8@@@__1@std@@@__1@std@@AEBA?AV?$__wrap_iter@PEBUCpuProfileDeoptInfo@v8@@@23@PEBUCpuProfileDeoptInfo@v8@@@Z
?__move_assign@?$vector@UCpuProfileDeoptFrame@v8@@V?$allocator@UCpuProfileDeoptFrame@v8@@@__1@std@@@__1@std@@AEAAXAEAV123@U?$integral_constant@_N$00@23@@Z
?__move_assign@?$vector@UCpuProfileDeoptFrame@v8@@V?$allocator@UCpuProfileDeoptFrame@v8@@@__1@std@@@__1@std@@AEAAXAEAV123@U?$integral_constant@_N$0A@@23@@Z
?__move_assign@?$vector@UCpuProfileDeoptInfo@v8@@V?$allocator@UCpuProfileDeoptInfo@v8@@@__1@std@@@__1@std@@AEAAXAEAV123@U?$integral_constant@_N$00@23@@Z
?__move_assign@?$vector@UCpuProfileDeoptInfo@v8@@V?$allocator@UCpuProfileDeoptInfo@v8@@@__1@std@@@__1@std@@AEAAXAEAV123@U?$integral_constant@_N$0A@@23@@Z
?__move_assign_alloc@?$__vector_base@UCpuProfileDeoptFrame@v8@@V?$allocator@UCpuProfileDeoptFrame@v8@@@__1@std@@@__1@std@@AEAAXAEAV123@U?$integral_constant@_N$00@23@@Z
?__move_assign_alloc@?$__vector_base@UCpuProfileDeoptFrame@v8@@V?$allocator@UCpuProfileDeoptFrame@v8@@@__1@std@@@__1@std@@AEAAXAEAV123@U?$integral_constant@_N$0A@@23@@Z
?__move_assign_alloc@?$__vector_base@UCpuProfileDeoptFrame@v8@@V?$allocator@UCpuProfileDeoptFrame@v8@@@__1@std@@@__1@std@@IEAAXAEAV123@@Z
?__move_assign_alloc@?$__vector_base@UCpuProfileDeoptInfo@v8@@V?$allocator@UCpuProfileDeoptInfo@v8@@@__1@std@@@__1@std@@AEAAXAEAV123@U?$integral_constant@_N$00@23@@Z
?__move_assign_alloc@?$__vector_base@UCpuProfileDeoptInfo@v8@@V?$allocator@UCpuProfileDeoptInfo@v8@@@__1@std@@@__1@std@@AEAAXAEAV123@U?$integral_constant@_N$0A@@23@@Z
?__move_assign_alloc@?$__vector_base@UCpuProfileDeoptInfo@v8@@V?$allocator@UCpuProfileDeoptInfo@v8@@@__1@std@@@__1@std@@IEAAXAEAV123@@Z
?__move_range@?$vector@UCpuProfileDeoptFrame@v8@@V?$allocator@UCpuProfileDeoptFrame@v8@@@__1@std@@@__1@std@@AEAAXPEAUCpuProfileDeoptFrame@v8@@00@Z
?__move_range@?$vector@UCpuProfileDeoptInfo@v8@@V?$allocator@UCpuProfileDeoptInfo@v8@@@__1@std@@@__1@std@@AEAAXPEAUCpuProfileDeoptInfo@v8@@00@Z
?__recommend@?$vector@UCpuProfileDeoptFrame@v8@@V?$allocator@UCpuProfileDeoptFrame@v8@@@__1@std@@@__1@std@@AEBA_K_K@Z
?__recommend@?$vector@UCpuProfileDeoptInfo@v8@@V?$allocator@UCpuProfileDeoptInfo@v8@@@__1@std@@@__1@std@@AEBA_K_K@Z
?__swap_out_circular_buffer@?$vector@UCpuProfileDeoptFrame@v8@@V?$allocator@UCpuProfileDeoptFrame@v8@@@__1@std@@@__1@std@@AEAAPEAUCpuProfileDeoptFrame@v8@@AEAU?$__split_buffer@UCpuProfileDeoptFrame@v8@@AEAV?$allocator@UCpuProfileDeoptFrame@v8@@@__1@std@@@23@PEAU45@@Z
?__swap_out_circular_buffer@?$vector@UCpuProfileDeoptFrame@v8@@V?$allocator@UCpuProfileDeoptFrame@v8@@@__1@std@@@__1@std@@AEAAXAEAU?$__split_buffer@UCpuProfileDeoptFrame@v8@@AEAV?$allocator@UCpuProfileDeoptFrame@v8@@@__1@std@@@23@@Z
?__swap_out_circular_buffer@?$vector@UCpuProfileDeoptInfo@v8@@V?$allocator@UCpuProfileDeoptInfo@v8@@@__1@std@@@__1@std@@AEAAPEAUCpuProfileDeoptInfo@v8@@AEAU?$__split_buffer@UCpuProfileDeoptInfo@v8@@AEAV?$allocator@UCpuProfileDeoptInfo@v8@@@__1@std@@@23@PEAU45@@Z
?__swap_out_circular_buffer@?$vector@UCpuProfileDeoptInfo@v8@@V?$allocator@UCpuProfileDeoptInfo@v8@@@__1@std@@@__1@std@@AEAAXAEAU?$__split_buffer@UCpuProfileDeoptInfo@v8@@AEAV?$allocator@UCpuProfileDeoptInfo@v8@@@__1@std@@@23@@Z
?__vallocate@?$vector@UCpuProfileDeoptFrame@v8@@V?$allocator@UCpuProfileDeoptFrame@v8@@@__1@std@@@__1@std@@AEAAX_K@Z
?__vallocate@?$vector@UCpuProfileDeoptInfo@v8@@V?$allocator@UCpuProfileDeoptInfo@v8@@@__1@std@@@__1@std@@AEAAX_K@Z
?__vdeallocate@?$vector@UCpuProfileDeoptFrame@v8@@V?$allocator@UCpuProfileDeoptFrame@v8@@@__1@std@@@__1@std@@AEAAXXZ
?__vdeallocate@?$vector@UCpuProfileDeoptInfo@v8@@V?$allocator@UCpuProfileDeoptInfo@v8@@@__1@std@@@__1@std@@AEAAXXZ
?Abort@node@@YAXXZ
?Abort@WasmModuleObjectBuilderStreaming@v8@@QEAAXV?$MaybeLocal@VValue@v8@@@2@@Z
?Abort@WasmStreaming@v8@@QEAAXV?$MaybeLocal@VValue@v8@@@2@@Z
?Add@Set@v8@@QEAA?AV?$MaybeLocal@VSet@v8@@@2@V?$Local@VContext@v8@@@2@V?$Local@VValue@v8@@@2@@Z
?AddAlias@?$OptionsParser@VDebugOptions@node@@@options_parser@node@@QEAAXPEBD0@Z
?AddAlias@?$OptionsParser@VDebugOptions@node@@@options_parser@node@@QEAAXPEBDAEBV?$initializer_list@V?$basic_string@DU?$char_traits@D@__1@std@@V?$allocator@D@23@@__1@std@@@std@@@Z
?AddAlias@?$OptionsParser@VDebugOptions@node@@@options_parser@node@@QEAAXPEBDAEBV?$vector@V?$basic_string@DU?$char_traits@D@__1@std@@V?$allocator@D@23@@__1@std@@V?$allocator@V?$basic_string@DU?$char_traits@D@__1@std@@V?$allocator@D@23@@__1@std@@@23@@__1@std@@@Z
?AddBeforeCallEnteredCallback@Isolate@v8@@QEAAXP6AXPEAV12@@Z@Z
?AddBuildEmbedderGraphCallback@HeapProfiler@v8@@QEAAXP6AXPEAVIsolate@2@PEAVEmbedderGraph@2@PEAX@Z2@Z
?AddCallCompletedCallback@Isolate@v8@@QEAAXP6AXPEAV12@@Z@Z
?AddContext@SnapshotCreator@v8@@QEAA_KV?$Local@VContext@v8@@@2@USerializeInternalFieldsCallback@2@@Z
?AddData@SnapshotCreator@v8@@AEAA_K_K@Z
?AddData@SnapshotCreator@v8@@AEAA_KV?$Local@VContext@v8@@@2@_K@Z
?AddEnvironmentCleanupHook@node@@YAXPEAVIsolate@v8@@P6AXPEAX@Z1@Z
?AddGCEpilogueCallback@Isolate@v8@@QEAAXP6AXPEAV12@W4GCType@2@W4GCCallbackFlags@2@@Z1@Z
?AddGCEpilogueCallback@Isolate@v8@@QEAAXP6AXPEAV12@W4GCType@2@W4GCCallbackFlags@2@PEAX@Z31@Z
?AddGCPrologueCallback@Isolate@v8@@QEAAXP6AXPEAV12@W4GCType@2@W4GCCallbackFlags@2@@Z1@Z
?AddGCPrologueCallback@Isolate@v8@@QEAAXP6AXPEAV12@W4GCType@2@W4GCCallbackFlags@2@PEAX@Z31@Z
?AddMessageListener@Isolate@v8@@QEAA_NP6AXV?$Local@VMessage@v8@@@2@V?$Local@VValue@v8@@@2@@Z1@Z
?AddMessageListenerWithErrorLevel@Isolate@v8@@QEAA_NP6AXV?$Local@VMessage@v8@@@2@V?$Local@VValue@v8@@@2@@ZH1@Z
?AddMicrotasksCompletedCallback@Isolate@v8@@QEAAXP6AXPEAV12@@Z@Z
?AddMicrotasksCompletedCallback@Isolate@v8@@QEAAXP6AXPEAV12@PEAX@Z1@Z
?AddNearHeapLimitCallback@Isolate@v8@@QEAAXP6A_KPEAX_K1@Z0@Z
?AddOptimizedCode@OSROptimizedCodeCache@internal@v8@@SAXV?$Handle@VNativeContext@internal@v8@@@23@V?$Handle@VSharedFunctionInfo@internal@v8@@@23@V?$Handle@VCode@internal@v8@@@23@VBailoutId@23@@Z
?AddOption@?$OptionsParser@VDebugOptions@node@@@options_parser@node@@QEAAXPEBD0PEQDebugOptions@3@_JW4OptionEnvvarSettings@23@@Z
?AddOption@?$OptionsParser@VDebugOptions@node@@@options_parser@node@@QEAAXPEBD0PEQDebugOptions@3@_KW4OptionEnvvarSettings@23@@Z
?AddOption@?$OptionsParser@VDebugOptions@node@@@options_parser@node@@QEAAXPEBD0PEQDebugOptions@3@_NW4OptionEnvvarSettings@23@@Z
?AddOption@?$OptionsParser@VDebugOptions@node@@@options_parser@node@@QEAAXPEBD0PEQDebugOptions@3@V?$basic_string@DU?$char_traits@D@__1@std@@V?$allocator@D@23@@__1@std@@W4OptionEnvvarSettings@23@@Z
?AddOption@?$OptionsParser@VDebugOptions@node@@@options_parser@node@@QEAAXPEBD0PEQDebugOptions@3@V?$vector@V?$basic_string@DU?$char_traits@D@__1@std@@V?$allocator@D@23@@__1@std@@V?$allocator@V?$basic_string@DU?$char_traits@D@__1@std@@V?$allocator@D@23@@__1@std@@@23@@__1@std@@W4OptionEnvvarSettings@23@@Z
?AddOption@?$OptionsParser@VDebugOptions@node@@@options_parser@node@@QEAAXPEBD0PEQDebugOptions@3@VHostPort@3@W4OptionEnvvarSettings@23@@Z
?AddOption@?$OptionsParser@VDebugOptions@node@@@options_parser@node@@QEAAXPEBD0UNoOp@123@W4OptionEnvvarSettings@23@@Z
?AddOption@?$OptionsParser@VDebugOptions@node@@@options_parser@node@@QEAAXPEBD0UV8Option@123@W4OptionEnvvarSettings@23@@Z
?AddTemplate@SnapshotCreator@v8@@QEAA_KV?$Local@VTemplate@v8@@@2@@Z
?AdjustAmountOfExternalAllocatedMemory@Isolate@v8@@QEAA_J_J@Z
?AllAsyncTasksCanceled@Agent@inspector@node@@QEAAXXZ
?Allocate@Isolate@v8@@SAPEAV12@XZ
?AllocationBase@Contents@ArrayBuffer@v8@@QEBAPEAXXZ
?AllocationBase@Contents@SharedArrayBuffer@v8@@QEBAPEAXXZ
?AllocationLength@Contents@ArrayBuffer@v8@@QEBA_KXZ
?AllocationLength@Contents@SharedArrayBuffer@v8@@QEBA_KXZ
?AllocationMode@Contents@ArrayBuffer@v8@@QEBA?AW40Allocator@23@XZ
?AllocationMode@Contents@SharedArrayBuffer@v8@@QEBA?AW40Allocator@ArrayBuffer@3@XZ
?AllowCodeGenerationFromStrings@Context@v8@@QEAAX_N@Z
?Ambiguous@ReasonEnum@Paused@API@Debugger@protocol@v8_inspector@@3PEBDEB
?AnnotateStrongRetainer@V8@v8@@CAXPEA_KPEBD@Z
?args@?8??Implies@?$OptionsParser@VDebugOptions@node@@@options_parser@node@@QEAAXPEBD0@Z@4UAssertionInfo@4@B
?args@?8??ImpliesNot@?$OptionsParser@VDebugOptions@node@@@options_parser@node@@QEAAXPEBD0@Z@4UAssertionInfo@4@B
?args@?BA@??Implies@?$OptionsParser@VDebugOptions@node@@@options_parser@node@@QEAAXPEBD0@Z@4UAssertionInfo@4@B
?args@?BA@??ImpliesNot@?$OptionsParser@VDebugOptions@node@@@options_parser@node@@QEAAXPEBD0@Z@4UAssertionInfo@4@B
?args@?DO@??Parse@?$OptionsParser@VDebugOptions@node@@@options_parser@node@@QEBAXQEAV?$vector@V?$basic_string@DU?$char_traits@D@__1@std@@V?$allocator@D@23@@__1@std@@V?$allocator@V?$basic_string@DU?$char_traits@D@__1@std@@V?$allocator@D@23@@__1@std@@@23@@__1@std@@00QEAVDebugOptions@4@W4OptionEnvvarSettings@34@0@Z@4UAssertionInfo@4@B
?AsArray@Map@v8@@QEBA?AV?$Local@VArray@v8@@@2@XZ
?AsArray@Set@v8@@QEBA?AV?$Local@VArray@v8@@@2@XZ
?Assert@node@@YAXAEBUAssertionInfo@1@@Z
?Assert@ReasonEnum@Paused@API@Debugger@protocol@v8_inspector@@3PEBDEB
?assign@?$vector@UCpuProfileDeoptFrame@v8@@V?$allocator@UCpuProfileDeoptFrame@v8@@@__1@std@@@__1@std@@QEAAX_KAEBUCpuProfileDeoptFrame@v8@@@Z
?assign@?$vector@UCpuProfileDeoptFrame@v8@@V?$allocator@UCpuProfileDeoptFrame@v8@@@__1@std@@@__1@std@@QEAAXV?$initializer_list@UCpuProfileDeoptFrame@v8@@@3@@Z
?assign@?$vector@UCpuProfileDeoptInfo@v8@@V?$allocator@UCpuProfileDeoptInfo@v8@@@__1@std@@@__1@std@@QEAAX_KAEBUCpuProfileDeoptInfo@v8@@@Z
?assign@?$vector@UCpuProfileDeoptInfo@v8@@V?$allocator@UCpuProfileDeoptInfo@v8@@@__1@std@@@__1@std@@QEAAXV?$initializer_list@UCpuProfileDeoptInfo@v8@@@3@@Z
?AsyncHooksGetExecutionAsyncId@node@@YANPEAVIsolate@v8@@@Z
?AsyncHooksGetTriggerAsyncId@node@@YANPEAVIsolate@v8@@@Z
?AsyncTaskCanceled@Agent@inspector@node@@QEAAXPEAX@Z
?AsyncTaskFinished@Agent@inspector@node@@QEAAXPEAX@Z
?AsyncTaskScheduled@Agent@inspector@node@@QEAAXAEBVStringView@v8_inspector@@PEAX_N@Z
?AsyncTaskStarted@Agent@inspector@node@@QEAAXPEAX@Z
?at@?$vector@UCpuProfileDeoptFrame@v8@@V?$allocator@UCpuProfileDeoptFrame@v8@@@__1@std@@@__1@std@@QEAAAEAUCpuProfileDeoptFrame@v8@@_K@Z
?at@?$vector@UCpuProfileDeoptFrame@v8@@V?$allocator@UCpuProfileDeoptFrame@v8@@@__1@std@@@__1@std@@QEBAAEBUCpuProfileDeoptFrame@v8@@_K@Z
?at@?$vector@UCpuProfileDeoptInfo@v8@@V?$allocator@UCpuProfileDeoptInfo@v8@@@__1@std@@@__1@std@@QEAAAEAUCpuProfileDeoptInfo@v8@@_K@Z
?at@?$vector@UCpuProfileDeoptInfo@v8@@V?$allocator@UCpuProfileDeoptInfo@v8@@@__1@std@@@__1@std@@QEBAAEBUCpuProfileDeoptInfo@v8@@_K@Z
?AtExit@node@@YAXP6AXPEAX@Z0@Z
?AtExit@node@@YAXPEAVEnvironment@1@P6AXPEAX@Z1@Z
?auto_enable@Extension@v8@@QEAA_NXZ
?AutomaticallyRestoreInitialHeapLimit@Isolate@v8@@QEAAXN@Z
?back@?$vector@UCpuProfileDeoptFrame@v8@@V?$allocator@UCpuProfileDeoptFrame@v8@@@__1@std@@@__1@std@@QEAAAEAUCpuProfileDeoptFrame@v8@@XZ
?back@?$vector@UCpuProfileDeoptFrame@v8@@V?$allocator@UCpuProfileDeoptFrame@v8@@@__1@std@@@__1@std@@QEBAAEBUCpuProfileDeoptFrame@v8@@XZ
?back@?$vector@UCpuProfileDeoptInfo@v8@@V?$allocator@UCpuProfileDeoptInfo@v8@@@__1@std@@@__1@std@@QEAAAEAUCpuProfileDeoptInfo@v8@@XZ
?back@?$vector@UCpuProfileDeoptInfo@v8@@V?$allocator@UCpuProfileDeoptInfo@v8@@@__1@std@@@__1@std@@QEBAAEBUCpuProfileDeoptInfo@v8@@XZ
?begin@?$vector@UCpuProfileDeoptFrame@v8@@V?$allocator@UCpuProfileDeoptFrame@v8@@@__1@std@@@__1@std@@QEAA?AV?$__wrap_iter@PEAUCpuProfileDeoptFrame@v8@@@23@XZ
?begin@?$vector@UCpuProfileDeoptFrame@v8@@V?$allocator@UCpuProfileDeoptFrame@v8@@@__1@std@@@__1@std@@QEBA?AV?$__wrap_iter@PEBUCpuProfileDeoptFrame@v8@@@23@XZ
?begin@?$vector@UCpuProfileDeoptInfo@v8@@V?$allocator@UCpuProfileDeoptInfo@v8@@@__1@std@@@__1@std@@QEAA?AV?$__wrap_iter@PEAUCpuProfileDeoptInfo@v8@@@23@XZ
?begin@?$vector@UCpuProfileDeoptInfo@v8@@V?$allocator@UCpuProfileDeoptInfo@v8@@@__1@std@@@__1@std@@QEBA?AV?$__wrap_iter@PEBUCpuProfileDeoptInfo@v8@@@23@XZ
?begin@ExtensionConfiguration@v8@@QEBAPEAPEBDXZ
?beginEnsureAllContextsInGroup@V8InspectorClient@v8_inspector@@UEAAXH@Z
?beginUserGesture@V8InspectorClient@v8_inspector@@UEAAXXZ
?BindToCurrentContext@UnboundScript@v8@@QEAA?AV?$Local@VScript@v8@@@2@XZ
?BooleanValue@Value@v8@@QEBA_NPEAVIsolate@2@@Z
?BooleanValue@Value@v8@@QEBA_NXZ
?BootstrapEnvironment@node@@YA_NPEAVEnvironment@1@@Z
?Buffer@ArrayBufferView@v8@@QEAA?AV?$Local@VArrayBuffer@v8@@@2@XZ
?build_@Version@internal@v8@@0HA
?bytecode_and_metadata_size@HeapCodeStatistics@v8@@QEAA_KXZ
?ByteLength@ArrayBuffer@v8@@QEBA_KXZ
?ByteLength@ArrayBufferView@v8@@QEAA_KXZ
?ByteLength@BackingStore@v8@@QEBA_KXZ
?ByteLength@Contents@ArrayBuffer@v8@@QEBA_KXZ
?ByteLength@Contents@SharedArrayBuffer@v8@@QEBA_KXZ
?ByteLength@SharedArrayBuffer@v8@@QEBA_KXZ
?ByteOffset@ArrayBufferView@v8@@QEAA_KXZ
?CachedDataVersionTag@ScriptCompiler@v8@@SAIXZ
?Call@Function@v8@@QEAA?AV?$MaybeLocal@VValue@v8@@@2@V?$Local@VContext@v8@@@2@V?$Local@VValue@v8@@@2@HQEAV52@@Z
?CallAsConstructor@Object@v8@@QEAA?AV?$MaybeLocal@VValue@v8@@@2@V?$Local@VContext@v8@@@2@HQEAV?$Local@VValue@v8@@@2@@Z
?CallAsFunction@Object@v8@@QEAA?AV?$MaybeLocal@VValue@v8@@@2@V?$Local@VContext@v8@@@2@V?$Local@VValue@v8@@@2@HQEAV52@@Z
?CanBeRehashed@StartupData@v8@@QEBA_NXZ
?CancelTerminateExecution@Isolate@v8@@QEAAXXZ
?cancelTimer@V8InspectorClient@v8_inspector@@UEAAXPEAX@Z
?CanContinue@TryCatch@v8@@QEBA_NXZ
?candidate_@Version@internal@v8@@0_NA
?canDispatchMethod@V8InspectorSession@v8_inspector@@SA_NAEBVStringView@2@@Z
?canExecuteScripts@V8InspectorClient@v8_inspector@@UEAA_NH@Z
?CanMakeExternal@String@v8@@QEAA_NXZ
?capacity@?$__vector_base@UCpuProfileDeoptFrame@v8@@V?$allocator@UCpuProfileDeoptFrame@v8@@@__1@std@@@__1@std@@IEBA_KXZ
?capacity@?$__vector_base@UCpuProfileDeoptInfo@v8@@V?$allocator@UCpuProfileDeoptInfo@v8@@@__1@std@@@__1@std@@IEBA_KXZ
?capacity@?$vector@UCpuProfileDeoptFrame@v8@@V?$allocator@UCpuProfileDeoptFrame@v8@@@__1@std@@@__1@std@@QEBA_KXZ
?capacity@?$vector@UCpuProfileDeoptInfo@v8@@V?$allocator@UCpuProfileDeoptInfo@v8@@@__1@std@@@__1@std@@QEBA_KXZ
?CapacityForLength@OSROptimizedCodeCache@internal@v8@@CAHH@Z
?Cast@AccessorSignature@v8@@SAPEAV12@PEAVData@2@@Z
?Cast@Array@v8@@SAPEAV12@PEAVValue@2@@Z
?Cast@ArrayBuffer@v8@@SAPEAV12@PEAVValue@2@@Z
?Cast@ArrayBufferView@v8@@SAPEAV12@PEAVValue@2@@Z
?Cast@BigInt64Array@v8@@SAPEAV12@PEAVValue@2@@Z
?Cast@BigInt@v8@@SAPEAV12@PEAVValue@2@@Z
?Cast@BigIntObject@v8@@SAPEAV12@PEAVValue@2@@Z
?Cast@BigUint64Array@v8@@SAPEAV12@PEAVValue@2@@Z
?Cast@Boolean@v8@@SAPEAV12@PEAVValue@2@@Z
?Cast@BooleanObject@v8@@SAPEAV12@PEAVValue@2@@Z
?Cast@DataView@v8@@SAPEAV12@PEAVValue@2@@Z
?Cast@Date@v8@@SAPEAV12@PEAVValue@2@@Z
?Cast@External@v8@@SAPEAV12@PEAVValue@2@@Z
?Cast@Float32Array@v8@@SAPEAV12@PEAVValue@2@@Z
?Cast@Float64Array@v8@@SAPEAV12@PEAVValue@2@@Z
?Cast@Function@v8@@SAPEAV12@PEAVValue@2@@Z
?Cast@FunctionTemplate@v8@@SAPEAV12@PEAVData@2@@Z
?Cast@Int16Array@v8@@SAPEAV12@PEAVValue@2@@Z
?Cast@Int32@v8@@SAPEAV12@PEAVValue@2@@Z
?Cast@Int32Array@v8@@SAPEAV12@PEAVValue@2@@Z
?Cast@Int8Array@v8@@SAPEAV12@PEAVValue@2@@Z
?Cast@Integer@v8@@SAPEAV12@PEAVValue@2@@Z
?Cast@Map@v8@@SAPEAV12@PEAVValue@2@@Z
?Cast@Name@v8@@SAPEAV12@PEAVValue@2@@Z
?Cast@Number@v8@@SAPEAV12@PEAVValue@2@@Z
?Cast@NumberObject@v8@@SAPEAV12@PEAVValue@2@@Z
?Cast@Object@v8@@SAPEAV12@PEAVValue@2@@Z
?Cast@ObjectTemplate@v8@@SAPEAV12@PEAVData@2@@Z
?cast@OSROptimizedCodeCache@internal@v8@@SA?AV123@VObject@23@@Z
?Cast@Private@v8@@SAPEAV12@PEAVData@2@@Z
?Cast@Promise@v8@@SAPEAV12@PEAVValue@2@@Z
?Cast@Proxy@v8@@SAPEAV12@PEAVValue@2@@Z
?Cast@RegExp@v8@@SAPEAV12@PEAVValue@2@@Z
?Cast@Resolver@Promise@v8@@SAPEAV123@PEAVValue@3@@Z
?Cast@Set@v8@@SAPEAV12@PEAVValue@2@@Z
?Cast@SharedArrayBuffer@v8@@SAPEAV12@PEAVValue@2@@Z
?Cast@Signature@v8@@SAPEAV12@PEAVData@2@@Z
?Cast@String@v8@@SAPEAV12@PEAVValue@2@@Z
?Cast@StringObject@v8@@SAPEAV12@PEAVValue@2@@Z
?Cast@Symbol@v8@@SAPEAV12@PEAVValue@2@@Z
?Cast@SymbolObject@v8@@SAPEAV12@PEAVValue@2@@Z
?Cast@TypedArray@v8@@SAPEAV12@PEAVValue@2@@Z
?Cast@Uint16Array@v8@@SAPEAV12@PEAVValue@2@@Z
?Cast@Uint32@v8@@SAPEAV12@PEAVValue@2@@Z
?Cast@Uint32Array@v8@@SAPEAV12@PEAVValue@2@@Z
?Cast@Uint8Array@v8@@SAPEAV12@PEAVValue@2@@Z
?Cast@Uint8ClampedArray@v8@@SAPEAV12@PEAVValue@2@@Z
?Cast@WasmModuleObject@v8@@SAPEAV12@PEAVValue@2@@Z
?Catch@Promise@v8@@QEAA?AV?$MaybeLocal@VPromise@v8@@@2@V?$Local@VContext@v8@@@2@V?$Local@VFunction@v8@@@2@@Z
?cbegin@?$vector@UCpuProfileDeoptFrame@v8@@V?$allocator@UCpuProfileDeoptFrame@v8@@@__1@std@@@__1@std@@QEBA?AV?$__wrap_iter@PEBUCpuProfileDeoptFrame@v8@@@23@XZ
?cbegin@?$vector@UCpuProfileDeoptInfo@v8@@V?$allocator@UCpuProfileDeoptInfo@v8@@@__1@std@@@__1@std@@QEBA?AV?$__wrap_iter@PEBUCpuProfileDeoptInfo@v8@@@23@XZ
?cend@?$vector@UCpuProfileDeoptFrame@v8@@V?$allocator@UCpuProfileDeoptFrame@v8@@@__1@std@@@__1@std@@QEBA?AV?$__wrap_iter@PEBUCpuProfileDeoptFrame@v8@@@23@XZ
?cend@?$vector@UCpuProfileDeoptInfo@v8@@V?$allocator@UCpuProfileDeoptInfo@v8@@@__1@std@@@__1@std@@QEBA?AV?$__wrap_iter@PEBUCpuProfileDeoptInfo@v8@@@23@XZ
?characters16@StringView@v8_inspector@@QEBAPEBGXZ
?characters8@StringView@v8_inspector@@QEBAPEBEXZ
?CheckCast@AccessorSignature@v8@@CAXPEAVData@2@@Z
?CheckCast@Array@v8@@CAXPEAVValue@2@@Z
?CheckCast@ArrayBuffer@v8@@CAXPEAVValue@2@@Z
?CheckCast@ArrayBufferView@v8@@CAXPEAVValue@2@@Z
?CheckCast@BigInt64Array@v8@@CAXPEAVValue@2@@Z
?CheckCast@BigInt@v8@@CAXPEAVValue@2@@Z
?CheckCast@BigIntObject@v8@@CAXPEAVValue@2@@Z
?CheckCast@BigUint64Array@v8@@CAXPEAVValue@2@@Z
?CheckCast@Boolean@v8@@CAXPEAVValue@2@@Z
?CheckCast@BooleanObject@v8@@CAXPEAVValue@2@@Z
?CheckCast@DataView@v8@@CAXPEAVValue@2@@Z
?CheckCast@Date@v8@@CAXPEAVValue@2@@Z
?CheckCast@External@v8@@CAXPEAVValue@2@@Z
?CheckCast@Float32Array@v8@@CAXPEAVValue@2@@Z
?CheckCast@Float64Array@v8@@CAXPEAVValue@2@@Z
?CheckCast@Function@v8@@CAXPEAVValue@2@@Z
?CheckCast@FunctionTemplate@v8@@CAXPEAVData@2@@Z
?CheckCast@Int16Array@v8@@CAXPEAVValue@2@@Z
?CheckCast@Int32@v8@@CAXPEAVValue@2@@Z
?CheckCast@Int32Array@v8@@CAXPEAVValue@2@@Z
?CheckCast@Int8Array@v8@@CAXPEAVValue@2@@Z
?CheckCast@Integer@v8@@CAXPEAVValue@2@@Z
?CheckCast@Map@v8@@CAXPEAVValue@2@@Z
?CheckCast@Name@v8@@CAXPEAVValue@2@@Z
?CheckCast@Number@v8@@CAXPEAVValue@2@@Z
?CheckCast@NumberObject@v8@@CAXPEAVValue@2@@Z
?CheckCast@Object@v8@@CAXPEAVValue@2@@Z
?CheckCast@ObjectTemplate@v8@@CAXPEAVData@2@@Z
?CheckCast@Private@v8@@CAXPEAVData@2@@Z
?CheckCast@Promise@v8@@CAXPEAVValue@2@@Z
?CheckCast@Proxy@v8@@CAXPEAVValue@2@@Z
?CheckCast@RegExp@v8@@CAXPEAVValue@2@@Z
?CheckCast@Resolver@Promise@v8@@CAXPEAVValue@3@@Z
?CheckCast@Set@v8@@CAXPEAVValue@2@@Z
?CheckCast@SharedArrayBuffer@v8@@CAXPEAVValue@2@@Z
?CheckCast@Signature@v8@@CAXPEAVData@2@@Z
?CheckCast@String@v8@@CAXPEAVValue@2@@Z
?CheckCast@StringObject@v8@@CAXPEAVValue@2@@Z
?CheckCast@Symbol@v8@@CAXPEAVValue@2@@Z
?CheckCast@SymbolObject@v8@@CAXPEAVValue@2@@Z
?CheckCast@TypedArray@v8@@CAXPEAVValue@2@@Z
?CheckCast@Uint16Array@v8@@CAXPEAVValue@2@@Z
?CheckCast@Uint32@v8@@CAXPEAVValue@2@@Z
?CheckCast@Uint32Array@v8@@CAXPEAVValue@2@@Z
?CheckCast@Uint8Array@v8@@CAXPEAVValue@2@@Z
?CheckCast@Uint8ClampedArray@v8@@CAXPEAVValue@2@@Z
?CheckCast@WasmModuleObject@v8@@CAXPEAVValue@2@@Z
?CheckInitializedImpl@Internals@internal@v8@@SAXPEAVIsolate@3@@Z
?CheckMemoryPressure@Isolate@v8@@AEAAXXZ
?CheckOptions@DebugOptions@node@@UEAAXPEAV?$vector@V?$basic_string@DU?$char_traits@D@__1@std@@V?$allocator@D@23@@__1@std@@V?$allocator@V?$basic_string@DU?$char_traits@D@__1@std@@V?$allocator@D@23@@__1@std@@@23@@__1@std@@@Z
?CheckOptions@Options@node@@UEAAXPEAV?$vector@V?$basic_string@DU?$char_traits@D@__1@std@@V?$allocator@D@23@@__1@std@@V?$allocator@V?$basic_string@DU?$char_traits@D@__1@std@@V?$allocator@D@23@@__1@std@@@23@@__1@std@@@Z
?Cleanup@FinalizationGroup@v8@@SA?AV?$Maybe@_N@2@V?$Local@VFinalizationGroup@v8@@@2@@Z
?clear@?$__vector_base@UCpuProfileDeoptFrame@v8@@V?$allocator@UCpuProfileDeoptFrame@v8@@@__1@std@@@__1@std@@IEAAXXZ
?clear@?$__vector_base@UCpuProfileDeoptInfo@v8@@V?$allocator@UCpuProfileDeoptInfo@v8@@@__1@std@@@__1@std@@IEAAXXZ
?clear@?$vector@UCpuProfileDeoptFrame@v8@@V?$allocator@UCpuProfileDeoptFrame@v8@@@__1@std@@@__1@std@@QEAAXXZ
?clear@?$vector@UCpuProfileDeoptInfo@v8@@V?$allocator@UCpuProfileDeoptInfo@v8@@@__1@std@@@__1@std@@QEAAXXZ
?Clear@Map@v8@@QEAAXXZ
?Clear@OSROptimizedCodeCache@internal@v8@@SAXVNativeContext@23@@Z
?Clear@Set@v8@@QEAAXXZ
?ClearEntry@OSROptimizedCodeCache@internal@v8@@AEAAXHPEAVIsolate@23@@Z
?ClearKeptObjects@Isolate@v8@@QEAAXXZ
?ClearObjectIds@HeapProfiler@v8@@QEAAXXZ
?ClearWeak@V8@v8@@CAPEAXPEA_K@Z
?Clone@Object@v8@@QEAA?AV?$Local@VObject@v8@@@2@XZ
?Close@InternalCallbackScope@node@@QEAAXXZ
?code_and_metadata_size@HeapCodeStatistics@v8@@QEAA_KXZ
?code_range_size@ResourceConstraints@v8@@QEBA_KXZ
?code_range_size_in_bytes@ResourceConstraints@v8@@QEBA_KXZ
?CollectSample@CpuProfiler@v8@@SAXPEAVIsolate@2@@Z
?Compact@OSROptimizedCodeCache@internal@v8@@SAXV?$Handle@VNativeContext@internal@v8@@@23@@Z
?Compile@Script@v8@@SA?AV?$MaybeLocal@VScript@v8@@@2@V?$Local@VContext@v8@@@2@V?$Local@VString@v8@@@2@PEAVScriptOrigin@2@@Z
?Compile@ScriptCompiler@v8@@SA?AV?$MaybeLocal@VScript@v8@@@2@V?$Local@VContext@v8@@@2@PEAVSource@12@W4CompileOptions@12@W4NoCacheReason@12@@Z
?Compile@ScriptCompiler@v8@@SA?AV?$MaybeLocal@VScript@v8@@@2@V?$Local@VContext@v8@@@2@PEAVStreamedSource@12@V?$Local@VString@v8@@@2@AEBVScriptOrigin@2@@Z
?Compile@WasmModuleObject@v8@@CA?AV?$MaybeLocal@VWasmModuleObject@v8@@@2@PEAVIsolate@2@PEBE_K@Z
?CompileFunction@NativeModuleEnv@native_module@node@@CAXAEBV?$FunctionCallbackInfo@VValue@v8@@@v8@@@Z
?CompileFunctionInContext@ScriptCompiler@v8@@SA?AV?$MaybeLocal@VFunction@v8@@@2@V?$Local@VContext@v8@@@2@PEAVSource@12@_KQEAV?$Local@VString@v8@@@2@2QEAV?$Local@VObject@v8@@@2@W4CompileOptions@12@W4NoCacheReason@12@PEAV?$Local@VScriptOrModule@v8@@@2@@Z
?CompileModule@ScriptCompiler@v8@@SA?AV?$MaybeLocal@VModule@v8@@@2@PEAVIsolate@2@PEAVSource@12@W4CompileOptions@12@W4NoCacheReason@12@@Z
?CompileUnboundInternal@ScriptCompiler@v8@@CA?AV?$MaybeLocal@VUnboundScript@v8@@@2@PEAVIsolate@2@PEAVSource@12@W4CompileOptions@12@W4NoCacheReason@12@@Z
?CompileUnboundScript@ScriptCompiler@v8@@SA?AV?$MaybeLocal@VUnboundScript@v8@@@2@PEAVIsolate@2@PEAVSource@12@W4CompileOptions@12@W4NoCacheReason@12@@Z
?Concat@String@v8@@SA?AV?$Local@VString@v8@@@2@PEAVIsolate@2@V32@1@Z
?Concat@String@v8@@SA?AV?$Local@VString@v8@@@2@V32@0@Z
?ConfigStringGetter@NativeModuleEnv@native_module@node@@CAXV?$Local@VName@v8@@@v8@@AEBV?$PropertyCallbackInfo@VValue@v8@@@5@@Z
?configurable@PropertyDescriptor@v8@@QEBA_NXZ
?ConfigureDefaults@ResourceConstraints@v8@@QEAAX_K0@Z
?ConfigureDefaultsFromHeapSize@ResourceConstraints@v8@@QEAAX_K0@Z
?Connect@Agent@inspector@node@@QEAA?AV?$unique_ptr@VInspectorSession@inspector@node@@U?$default_delete@VInspectorSession@inspector@node@@@__1@std@@@__1@std@@V?$unique_ptr@VInspectorSessionDelegate@inspector@node@@U?$default_delete@VInspectorSessionDelegate@inspector@node@@@__1@std@@@56@_N@Z
?ConnectToMainThread@Agent@inspector@node@@QEAA?AV?$unique_ptr@VInspectorSession@inspector@node@@U?$default_delete@VInspectorSession@inspector@node@@@__1@std@@@__1@std@@V?$unique_ptr@VInspectorSessionDelegate@inspector@node@@U?$default_delete@VInspectorSessionDelegate@inspector@node@@@__1@std@@@56@_N@Z
?consoleAPIMessage@V8InspectorClient@v8_inspector@@UEAAXHW4MessageErrorLevel@Isolate@v8@@AEBVStringView@2@1IIPEAVV8StackTrace@2@@Z
?consoleClear@V8InspectorClient@v8_inspector@@UEAAXH@Z
?consoleTime@V8InspectorClient@v8_inspector@@UEAAXAEBVStringView@2@@Z
?consoleTimeEnd@V8InspectorClient@v8_inspector@@UEAAXAEBVStringView@2@@Z
?consoleTimeStamp@V8InspectorClient@v8_inspector@@UEAAXAEBVStringView@2@@Z
?ContainsOnlyOneByte@String@v8@@QEBA_NXZ
?ContextCreated@Agent@inspector@node@@QEAAXV?$Local@VContext@v8@@@v8@@AEBUContextInfo@3@@Z
?ContextDisposedNotification@Isolate@v8@@QEAAH_N@Z
?Copy@Buffer@node@@YA?AV?$MaybeLocal@VObject@v8@@@v8@@PEAVIsolate@4@PEBD_K@Z
?CopyContents@ArrayBufferView@v8@@QEAA_KPEAX_K@Z
?CopyGlobalReference@V8@v8@@CAPEA_KPEA_K@Z
?CopyTracedGlobalReference@V8@v8@@CAXPEBQEB_KPEAPEA_K@Z
?crbegin@?$vector@UCpuProfileDeoptFrame@v8@@V?$allocator@UCpuProfileDeoptFrame@v8@@@__1@std@@@__1@std@@QEBA?AV?$reverse_iterator@V?$__wrap_iter@PEBUCpuProfileDeoptFrame@v8@@@__1@std@@@23@XZ
?crbegin@?$vector@UCpuProfileDeoptInfo@v8@@V?$allocator@UCpuProfileDeoptInfo@v8@@@__1@std@@@__1@std@@QEBA?AV?$reverse_iterator@V?$__wrap_iter@PEBUCpuProfileDeoptInfo@v8@@@__1@std@@@23@XZ
?Create@ArrayBufferAllocator@node@@SA?AV?$unique_ptr@VArrayBufferAllocator@node@@U?$default_delete@VArrayBufferAllocator@node@@@__1@std@@@__1@std@@_N@Z
?create@StringBuffer@v8_inspector@@SA?AV?$unique_ptr@VStringBuffer@v8_inspector@@U?$default_delete@VStringBuffer@v8_inspector@@@__1@std@@@__1@std@@AEBVStringView@2@@Z
?create@V8Inspector@v8_inspector@@SA?AV?$unique_ptr@VV8Inspector@v8_inspector@@U?$default_delete@VV8Inspector@v8_inspector@@@__1@std@@@__1@std@@PEAVIsolate@v8@@PEAVV8InspectorClient@2@@Z
?CreateAgent@node@@YAPEAVAgent@tracing@1@XZ
?CreateArrayBufferAllocator@node@@YAPEAVArrayBufferAllocator@1@XZ
?CreateBlob@SnapshotCreator@v8@@QEAA?AVStartupData@2@W4FunctionCodeHandling@12@@Z
?CreateCodeCache@ScriptCompiler@v8@@SAPEAUCachedData@12@V?$Local@VUnboundModuleScript@v8@@@2@@Z
?CreateCodeCache@ScriptCompiler@v8@@SAPEAUCachedData@12@V?$Local@VUnboundScript@v8@@@2@@Z
?CreateCodeCacheForFunction@ScriptCompiler@v8@@SAPEAUCachedData@12@V?$Local@VFunction@v8@@@2@@Z
?CreateDataProperty@Object@v8@@QEAA?AV?$Maybe@_N@2@V?$Local@VContext@v8@@@2@IV?$Local@VValue@v8@@@2@@Z
?CreateDataProperty@Object@v8@@QEAA?AV?$Maybe@_N@2@V?$Local@VContext@v8@@@2@V?$Local@VName@v8@@@2@V?$Local@VValue@v8@@@2@@Z
?CreateEnvironment@node@@YAPEAVEnvironment@1@PEAVIsolateData@1@V?$Local@VContext@v8@@@v8@@HPEBQEBDH2_N@Z
?CreateHandle@HandleScope@v8@@KAPEA_KPEAVIsolate@internal@2@_K@Z
?CreateIsolateData@node@@YAPEAVIsolateData@1@PEAVIsolate@v8@@PEAUuv_loop_s@@PEAVMultiIsolatePlatform@1@PEAVArrayBufferAllocator@1@@Z
?CreateMessage@Exception@v8@@SA?AV?$Local@VMessage@v8@@@2@PEAVIsolate@2@V?$Local@VValue@v8@@@2@@Z
?CreatePlatform@node@@YAPEAVMultiIsolatePlatform@1@HPEAVTracingController@tracing@1@@Z
?CreateSyntheticModule@Module@v8@@SA?AV?$Local@VModule@v8@@@2@PEAVIsolate@2@V?$Local@VString@v8@@@2@AEBV?$vector@V?$Local@VString@v8@@@v8@@V?$allocator@V?$Local@VString@v8@@@v8@@@__1@std@@@__1@std@@P6A?AV?$MaybeLocal@VValue@v8@@@2@V?$Local@VContext@v8@@@2@V32@@Z@Z
?CreationContext@Object@v8@@QEAA?AV?$Local@VContext@v8@@@2@XZ
?CreationContext@Object@v8@@SA?AV?$Local@VContext@v8@@@2@AEBV?$PersistentBase@VObject@v8@@@2@@Z
?crend@?$vector@UCpuProfileDeoptFrame@v8@@V?$allocator@UCpuProfileDeoptFrame@v8@@@__1@std@@@__1@std@@QEBA?AV?$reverse_iterator@V?$__wrap_iter@PEBUCpuProfileDeoptFrame@v8@@@__1@std@@@23@XZ
?crend@?$vector@UCpuProfileDeoptInfo@v8@@V?$allocator@UCpuProfileDeoptInfo@v8@@@__1@std@@@__1@std@@QEBA?AV?$reverse_iterator@V?$__wrap_iter@PEBUCpuProfileDeoptInfo@v8@@@__1@std@@@23@XZ
?CurrentStackTrace@StackTrace@v8@@SA?AV?$Local@VStackTrace@v8@@@2@PEAVIsolate@2@HW4StackTraceOptions@12@@Z
?currentTimeMS@V8InspectorClient@v8_inspector@@UEAANXZ
?data@?$MemorySpan@$$CBE@v8@@QEBAPEBEXZ
?data@?$vector@UCpuProfileDeoptFrame@v8@@V?$allocator@UCpuProfileDeoptFrame@v8@@@__1@std@@@__1@std@@QEAAPEAUCpuProfileDeoptFrame@v8@@XZ
?data@?$vector@UCpuProfileDeoptFrame@v8@@V?$allocator@UCpuProfileDeoptFrame@v8@@@__1@std@@@__1@std@@QEBAPEBUCpuProfileDeoptFrame@v8@@XZ
?data@?$vector@UCpuProfileDeoptInfo@v8@@V?$allocator@UCpuProfileDeoptInfo@v8@@@__1@std@@@__1@std@@QEAAPEAUCpuProfileDeoptInfo@v8@@XZ
?data@?$vector@UCpuProfileDeoptInfo@v8@@V?$allocator@UCpuProfileDeoptInfo@v8@@@__1@std@@@__1@std@@QEBAPEBUCpuProfileDeoptInfo@v8@@XZ
?Data@BackingStore@v8@@QEBAPEAXXZ
?Data@Buffer@node@@YAPEADV?$Local@VObject@v8@@@v8@@@Z
?Data@Buffer@node@@YAPEADV?$Local@VValue@v8@@@v8@@@Z
?Data@Contents@ArrayBuffer@v8@@QEBAPEAXXZ
?Data@Contents@SharedArrayBuffer@v8@@QEBAPEAXXZ
?DateTimeConfigurationChangeNotification@Isolate@v8@@QEAAXW4TimeZoneDetection@12@@Z
?DebugCommand@ReasonEnum@Paused@API@Debugger@protocol@v8_inspector@@3PEBDEB
?DecodeBytes@node@@YA_JPEAVIsolate@v8@@V?$Local@VValue@v8@@@3@W4encoding@1@@Z
?DecodeWrite@node@@YA_JPEAVIsolate@v8@@PEAD_KV?$Local@VValue@v8@@@3@W4encoding@1@@Z
?DecreaseAllocatedSize@EmbedderHeapTracer@v8@@QEAAX_K@Z
?DefineOwnProperty@Object@v8@@QEAA?AV?$Maybe@_N@2@V?$Local@VContext@v8@@@2@V?$Local@VName@v8@@@2@V?$Local@VValue@v8@@@2@W4PropertyAttribute@2@@Z
?DefineProperty@Object@v8@@QEAA?AV?$Maybe@_N@2@V?$Local@VContext@v8@@@2@V?$Local@VName@v8@@@2@AEAVPropertyDescriptor@2@@Z
?Delete@CpuProfile@v8@@QEAAXXZ
?Delete@HeapSnapshot@v8@@QEAAXXZ
?Delete@Map@v8@@QEAA?AV?$Maybe@_N@2@V?$Local@VContext@v8@@@2@V?$Local@VValue@v8@@@2@@Z
?Delete@Object@v8@@QEAA?AV?$Maybe@_N@2@V?$Local@VContext@v8@@@2@I@Z
?Delete@Object@v8@@QEAA?AV?$Maybe@_N@2@V?$Local@VContext@v8@@@2@V?$Local@VValue@v8@@@2@@Z
?Delete@Set@v8@@QEAA?AV?$Maybe@_N@2@V?$Local@VContext@v8@@@2@V?$Local@VValue@v8@@@2@@Z
?DeleteAllHeapSnapshots@HeapProfiler@v8@@QEAAXXZ
?DeletePrivate@Object@v8@@QEAA?AV?$Maybe@_N@2@V?$Local@VContext@v8@@@2@V?$Local@VPrivate@v8@@@2@@Z
?Deleter@Contents@ArrayBuffer@v8@@QEBAP6AXPEAX_K0@ZXZ
?Deleter@Contents@SharedArrayBuffer@v8@@QEBAP6AXPEAX_K0@ZXZ
?DeleterData@Contents@ArrayBuffer@v8@@QEBAPEAXXZ
?DeleterData@Contents@SharedArrayBuffer@v8@@QEBAPEAXXZ
?DeoptimizeAll@Testing@v8@@SAXPEAVIsolate@2@@Z
?dependencies@Extension@v8@@QEBAPEAPEBDXZ
?dependency_count@Extension@v8@@QEBAHXZ
?Description@Symbol@v8@@QEBA?AV?$Local@VValue@v8@@@2@XZ
?Deserialize@WasmModuleObject@v8@@CA?AV?$MaybeLocal@VWasmModuleObject@v8@@@2@PEAVIsolate@2@V?$MemorySpan@$$CBE@2@1@Z
?DeserializeOrCompile@WasmModuleObject@v8@@SA?AV?$MaybeLocal@VWasmModuleObject@v8@@@2@PEAVIsolate@2@V?$MemorySpan@$$CBE@2@1@Z
?Detach@ArrayBuffer@v8@@QEAAXXZ
?DetachGlobal@Context@v8@@QEAAXXZ
?Disable@CodeEventHandler@v8@@QEAAXXZ
?DisableAsyncHook@Agent@inspector@node@@QEAAXXZ
?DisableMemorySavingsMode@Isolate@v8@@QEAAXXZ
?DiscardThreadSpecificMetadata@Isolate@v8@@QEAAXXZ
?Dispose@CpuProfiler@v8@@QEAAXXZ
?Dispose@ExternalStringResourceBase@String@v8@@MEAAXXZ
?Dispose@Isolate@v8@@QEAAXXZ
?Dispose@V8@v8@@SA_NXZ
?DisposeGlobal@V8@v8@@CAXPEA_K@Z
?DisposeTracedGlobal@V8@v8@@CAXPEA_K@Z
?does_zap_garbage@HeapStatistics@v8@@QEAA_KXZ
?DOM@ReasonEnum@Paused@API@Debugger@protocol@v8_inspector@@3PEBDEB
?DumpAndResetStats@Isolate@v8@@QEAAXXZ
?DumpAsyncTaskStacksStateForTest@v8_inspector@@YAXPEAVV8Inspector@1@@Z
?embedder_@Version@internal@v8@@0PEBDEB
?EmitAsyncDestroy@node@@YAXPEAVEnvironment@1@Uasync_context@1@@Z
?EmitAsyncDestroy@node@@YAXPEAVIsolate@v8@@Uasync_context@1@@Z
?EmitAsyncInit@node@@YA?AUasync_context@1@PEAVIsolate@v8@@V?$Local@VObject@v8@@@4@PEBDN@Z
?EmitAsyncInit@node@@YA?AUasync_context@1@PEAVIsolate@v8@@V?$Local@VObject@v8@@@4@V?$Local@VString@v8@@@4@N@Z
?EmitBeforeExit@node@@YAXPEAVEnvironment@1@@Z
?EmitExit@node@@YAHPEAVEnvironment@1@@Z
?empty@?$vector@UCpuProfileDeoptFrame@v8@@V?$allocator@UCpuProfileDeoptFrame@v8@@@__1@std@@@__1@std@@QEBA_NXZ
?empty@?$vector@UCpuProfileDeoptInfo@v8@@V?$allocator@UCpuProfileDeoptInfo@v8@@@__1@std@@@__1@std@@QEBA_NXZ
?Empty@String@v8@@SA?AV?$Local@VString@v8@@@2@PEAVIsolate@2@@Z
?Enable@CodeEventHandler@v8@@QEAAXXZ
?EnableAsyncHook@Agent@inspector@node@@QEAAXXZ
?EnableBreakFirstLine@DebugOptions@node@@QEAAXXZ
?EnableMemorySavingsMode@Isolate@v8@@QEAAXXZ
?EnableWebAssemblyTrapHandler@V8@v8@@SA_N_N@Z
?Encode@node@@YA?AV?$Local@VValue@v8@@@v8@@PEAVIsolate@3@PEBD_KW4encoding@1@@Z
?Encode@node@@YA?AV?$Local@VValue@v8@@@v8@@PEAVIsolate@3@PEBG_K@Z
?end@?$vector@UCpuProfileDeoptFrame@v8@@V?$allocator@UCpuProfileDeoptFrame@v8@@@__1@std@@@__1@std@@QEAA?AV?$__wrap_iter@PEAUCpuProfileDeoptFrame@v8@@@23@XZ
?end@?$vector@UCpuProfileDeoptFrame@v8@@V?$allocator@UCpuProfileDeoptFrame@v8@@@__1@std@@@__1@std@@QEBA?AV?$__wrap_iter@PEBUCpuProfileDeoptFrame@v8@@@23@XZ
?end@?$vector@UCpuProfileDeoptInfo@v8@@V?$allocator@UCpuProfileDeoptInfo@v8@@@__1@std@@@__1@std@@QEAA?AV?$__wrap_iter@PEAUCpuProfileDeoptInfo@v8@@@23@XZ
?end@?$vector@UCpuProfileDeoptInfo@v8@@V?$allocator@UCpuProfileDeoptInfo@v8@@@__1@std@@@__1@std@@QEBA?AV?$__wrap_iter@PEBUCpuProfileDeoptInfo@v8@@@23@XZ
?end@ExtensionConfiguration@v8@@QEBAPEAPEBDXZ
?endEnsureAllContextsInGroup@V8InspectorClient@v8_inspector@@UEAAXH@Z
?endUserGesture@V8InspectorClient@v8_inspector@@UEAAXXZ
?EnqueueMicrotask@Isolate@v8@@QEAAXP6AXPEAX@Z0@Z
?EnqueueMicrotask@Isolate@v8@@QEAAXV?$Local@VFunction@v8@@@2@@Z
?ensureDefaultContextInGroup@V8InspectorClient@v8_inspector@@UEAA?AV?$Local@VContext@v8@@@v8@@H@Z
?Enter@Context@v8@@QEAAXXZ
?Enter@Isolate@v8@@QEAAXXZ
?enumerable@PropertyDescriptor@v8@@QEBA_NXZ
?Equals@Value@v8@@QEBA?AV?$Maybe@_N@2@V?$Local@VContext@v8@@@2@V?$Local@VValue@v8@@@2@@Z
?Equals@Value@v8@@QEBA_NV?$Local@VValue@v8@@@2@@Z
?erase@?$vector@UCpuProfileDeoptFrame@v8@@V?$allocator@UCpuProfileDeoptFrame@v8@@@__1@std@@@__1@std@@QEAA?AV?$__wrap_iter@PEAUCpuProfileDeoptFrame@v8@@@23@V?$__wrap_iter@PEBUCpuProfileDeoptFrame@v8@@@23@0@Z
?erase@?$vector@UCpuProfileDeoptFrame@v8@@V?$allocator@UCpuProfileDeoptFrame@v8@@@__1@std@@@__1@std@@QEAA?AV?$__wrap_iter@PEAUCpuProfileDeoptFrame@v8@@@23@V?$__wrap_iter@PEBUCpuProfileDeoptFrame@v8@@@23@@Z
?erase@?$vector@UCpuProfileDeoptInfo@v8@@V?$allocator@UCpuProfileDeoptInfo@v8@@@__1@std@@@__1@std@@QEAA?AV?$__wrap_iter@PEAUCpuProfileDeoptInfo@v8@@@23@V?$__wrap_iter@PEBUCpuProfileDeoptInfo@v8@@@23@0@Z
?erase@?$vector@UCpuProfileDeoptInfo@v8@@V?$allocator@UCpuProfileDeoptInfo@v8@@@__1@std@@@__1@std@@QEAA?AV?$__wrap_iter@PEAUCpuProfileDeoptInfo@v8@@@23@V?$__wrap_iter@PEBUCpuProfileDeoptInfo@v8@@@23@@Z
?ErrnoException@node@@YA?AV?$Local@VValue@v8@@@v8@@PEAVIsolate@3@HPEBD11@Z
?Error@Exception@v8@@SA?AV?$Local@VValue@v8@@@2@V?$Local@VString@v8@@@2@@Z
?ErrorLevel@Message@v8@@QEBAHXZ
?Escape@EscapableHandleScope@v8@@AEAAPEA_KPEA_K@Z
?Eternalize@V8@v8@@CAPEAVValue@2@PEAVIsolate@2@PEAV32@@Z
?Evaluate@Module@v8@@QEAA?AV?$MaybeLocal@VValue@v8@@@2@V?$Local@VContext@v8@@@2@@Z
?EventListener@ReasonEnum@Paused@API@Debugger@protocol@v8_inspector@@3PEBDEB
?EvictMarkedCode@OSROptimizedCodeCache@internal@v8@@QEAAXPEAVIsolate@23@@Z
?Exception@ReasonEnum@Paused@API@Debugger@protocol@v8_inspector@@3PEBDEB
?Exception@TryCatch@v8@@QEBA?AV?$Local@VValue@v8@@@2@XZ
?Exec@RegExp@v8@@QEAA?AV?$MaybeLocal@VObject@v8@@@2@V?$Local@VContext@v8@@@2@V?$Local@VString@v8@@@2@@Z
?executionContextId@V8ContextInfo@v8_inspector@@SAHV?$Local@VContext@v8@@@v8@@@Z
?Exists@NativeModuleEnv@native_module@node@@SA_NPEBD@Z
?Exit@Context@v8@@QEAAXXZ
?Exit@Isolate@v8@@QEAAXXZ
?external_memory@HeapStatistics@v8@@QEAA_KXZ
?external_script_source_size@HeapCodeStatistics@v8@@QEAA_KXZ
?Externalize@ArrayBuffer@v8@@QEAA?AVContents@12@XZ
?Externalize@ArrayBuffer@v8@@QEAAXAEBV?$shared_ptr@VBackingStore@v8@@@__1@std@@@Z
?Externalize@SharedArrayBuffer@v8@@QEAA?AVContents@12@XZ
?Externalize@SharedArrayBuffer@v8@@QEAAXAEBV?$shared_ptr@VBackingStore@v8@@@__1@std@@@Z
?Failed@InternalCallbackScope@node@@QEBA_NXZ
?FatalException@node@@YAXPEAVIsolate@v8@@AEBVTryCatch@3@@Z
?FinalizeTracing@EmbedderHeapTracer@v8@@QEAAXXZ
?FindEntry@OSROptimizedCodeCache@internal@v8@@AEAAHV?$Handle@VSharedFunctionInfo@internal@v8@@@23@VBailoutId@23@@Z
?FindInstanceInPrototypeChain@Object@v8@@QEAA?AV?$Local@VObject@v8@@@2@V?$Local@VFunctionTemplate@v8@@@2@@Z
?FindObjectById@HeapProfiler@v8@@QEAA?AV?$Local@VValue@v8@@@2@I@Z
?Finish@WasmModuleObjectBuilderStreaming@v8@@QEAAXXZ
?Finish@WasmStreaming@v8@@QEAAXXZ
?For@Symbol@v8@@SA?AV?$Local@VSymbol@v8@@@2@PEAVIsolate@2@V?$Local@VString@v8@@@2@@Z
?ForApi@Private@v8@@SA?AV?$Local@VPrivate@v8@@@2@PEAVIsolate@2@V?$Local@VString@v8@@@2@@Z
?ForApi@Symbol@v8@@SA?AV?$Local@VSymbol@v8@@@2@PEAVIsolate@2@V?$Local@VString@v8@@@2@@Z
?formatAccessorsAsProperties@V8InspectorClient@v8_inspector@@UEAA_NV?$Local@VValue@v8@@@v8@@@Z
?FreeArrayBufferAllocator@node@@YAXPEAVArrayBufferAllocator@1@@Z
?FreeBufferMemory@Delegate@ValueSerializer@v8@@UEAAXPEAX@Z
?FreeEnvironment@node@@YAXPEAVEnvironment@1@@Z
?FreeIsolateData@node@@YAXPEAVIsolateData@1@@Z
?FreePlatform@node@@YAXPEAVMultiIsolatePlatform@1@@Z
?fromBinary@Domain@API@Schema@protocol@v8_inspector@@SA?AV?$unique_ptr@VDomain@API@Schema@protocol@v8_inspector@@U?$default_delete@VDomain@API@Schema@protocol@v8_inspector@@@__1@std@@@__1@std@@PEBE_K@Z
?fromBinary@RemoteObject@API@Runtime@protocol@v8_inspector@@SA?AV?$unique_ptr@VRemoteObject@API@Runtime@protocol@v8_inspector@@U?$default_delete@VRemoteObject@API@Runtime@protocol@v8_inspector@@@__1@std@@@__1@std@@PEBE_K@Z
?fromBinary@SearchMatch@API@Debugger@protocol@v8_inspector@@SA?AV?$unique_ptr@VSearchMatch@API@Debugger@protocol@v8_inspector@@U?$default_delete@VSearchMatch@API@Debugger@protocol@v8_inspector@@@__1@std@@@__1@std@@PEBE_K@Z
?fromBinary@StackTrace@API@Runtime@protocol@v8_inspector@@SA?AV?$unique_ptr@VStackTrace@API@Runtime@protocol@v8_inspector@@U?$default_delete@VStackTrace@API@Runtime@protocol@v8_inspector@@@__1@std@@@__1@std@@PEBE_K@Z
?fromBinary@StackTraceId@API@Runtime@protocol@v8_inspector@@SA?AV?$unique_ptr@VStackTraceId@API@Runtime@protocol@v8_inspector@@U?$default_delete@VStackTraceId@API@Runtime@protocol@v8_inspector@@@__1@std@@@__1@std@@PEBE_K@Z
?FromCompiledModule@WasmModuleObject@v8@@SA?AV?$MaybeLocal@VWasmModuleObject@v8@@@2@PEAVIsolate@2@AEBVCompiledWasmModule@2@@Z
?fromJSONString@Domain@API@Schema@protocol@v8_inspector@@SA?AV?$unique_ptr@VDomain@API@Schema@protocol@v8_inspector@@U?$default_delete@VDomain@API@Schema@protocol@v8_inspector@@@__1@std@@@__1@std@@AEBVStringView@5@@Z
?fromJSONString@RemoteObject@API@Runtime@protocol@v8_inspector@@SA?AV?$unique_ptr@VRemoteObject@API@Runtime@protocol@v8_inspector@@U?$default_delete@VRemoteObject@API@Runtime@protocol@v8_inspector@@@__1@std@@@__1@std@@AEBVStringView@5@@Z
?fromJSONString@SearchMatch@API@Debugger@protocol@v8_inspector@@SA?AV?$unique_ptr@VSearchMatch@API@Debugger@protocol@v8_inspector@@U?$default_delete@VSearchMatch@API@Debugger@protocol@v8_inspector@@@__1@std@@@__1@std@@AEBVStringView@5@@Z
?fromJSONString@StackTrace@API@Runtime@protocol@v8_inspector@@SA?AV?$unique_ptr@VStackTrace@API@Runtime@protocol@v8_inspector@@U?$default_delete@VStackTrace@API@Runtime@protocol@v8_inspector@@@__1@std@@@__1@std@@AEBVStringView@5@@Z
?fromJSONString@StackTraceId@API@Runtime@protocol@v8_inspector@@SA?AV?$unique_ptr@VStackTraceId@API@Runtime@protocol@v8_inspector@@U?$default_delete@VStackTraceId@API@Runtime@protocol@v8_inspector@@@__1@std@@@__1@std@@AEBVStringView@5@@Z
?FromJustIsNothing@V8@v8@@CAXXZ
?FromSnapshot@Context@v8@@SA?AV?$MaybeLocal@VContext@v8@@@2@PEAVIsolate@2@_KUDeserializeInternalFieldsCallback@2@PEAVExtensionConfiguration@2@V?$MaybeLocal@VValue@v8@@@2@PEAVMicrotaskQueue@2@@Z
?FromSnapshot@FunctionTemplate@v8@@SA?AV?$MaybeLocal@VFunctionTemplate@v8@@@2@PEAVIsolate@2@_K@Z
?FromSnapshot@ObjectTemplate@v8@@SA?AV?$MaybeLocal@VObjectTemplate@v8@@@2@PEAVIsolate@2@_K@Z
?fromUTF16LE@String16@v8_inspector@@SA?AV12@PEBG_K@Z
?fromUTF8@String16@v8_inspector@@SA?AV12@PEBD_K@Z
?front@?$vector@UCpuProfileDeoptFrame@v8@@V?$allocator@UCpuProfileDeoptFrame@v8@@@__1@std@@@__1@std@@QEAAAEAUCpuProfileDeoptFrame@v8@@XZ
?front@?$vector@UCpuProfileDeoptFrame@v8@@V?$allocator@UCpuProfileDeoptFrame@v8@@@__1@std@@@__1@std@@QEBAAEBUCpuProfileDeoptFrame@v8@@XZ
?front@?$vector@UCpuProfileDeoptInfo@v8@@V?$allocator@UCpuProfileDeoptInfo@v8@@@__1@std@@@__1@std@@QEAAAEAUCpuProfileDeoptInfo@v8@@XZ
?front@?$vector@UCpuProfileDeoptInfo@v8@@V?$allocator@UCpuProfileDeoptInfo@v8@@@__1@std@@@__1@std@@QEBAAEBUCpuProfileDeoptInfo@v8@@XZ
?FullIsNull@Value@v8@@AEBA_NXZ
?FullIsString@Value@v8@@AEBA_NXZ
?FullIsUndefined@Value@v8@@AEBA_NXZ
?g_standalone_mode@node@@3_NA
?g_upstream_node_mode@node@@3_NA
?GarbageCollectionForTesting@EmbedderHeapTracer@v8@@QEAAXW4EmbedderStackState@12@@Z
?Get@Map@v8@@QEAA?AV?$MaybeLocal@VValue@v8@@@2@V?$Local@VContext@v8@@@2@V?$Local@VValue@v8@@@2@@Z
?Get@Message@v8@@QEBA?AV?$Local@VString@v8@@@2@XZ
?Get@Object@v8@@QEAA?AV?$MaybeLocal@VValue@v8@@@2@V?$Local@VContext@v8@@@2@I@Z
?Get@Object@v8@@QEAA?AV?$MaybeLocal@VValue@v8@@@2@V?$Local@VContext@v8@@@2@V?$Local@VValue@v8@@@2@@Z
?Get@PrimitiveArray@v8@@QEAA?AV?$Local@VPrimitive@v8@@@2@H@Z
?Get@PrimitiveArray@v8@@QEAA?AV?$Local@VPrimitive@v8@@@2@PEAVIsolate@2@H@Z
?get@PropertyDescriptor@v8@@QEBA?AV?$Local@VValue@v8@@@2@XZ
?get_allocator@?$vector@UCpuProfileDeoptFrame@v8@@V?$allocator@UCpuProfileDeoptFrame@v8@@@__1@std@@@__1@std@@QEBA?AV?$allocator@UCpuProfileDeoptFrame@v8@@@23@XZ
?get_allocator@?$vector@UCpuProfileDeoptInfo@v8@@V?$allocator@UCpuProfileDeoptInfo@v8@@@__1@std@@@__1@std@@QEBA?AV?$allocator@UCpuProfileDeoptInfo@v8@@@23@XZ
?get_async_id@AsyncResource@node@@QEBANXZ
?get_linked_module@binding@node@@YAPEAUnode_module@2@PEBD@Z
?get_private@PropertyDescriptor@v8@@QEBAPEAUPrivateData@12@XZ
?get_resource@AsyncResource@node@@QEAA?AV?$Local@VObject@v8@@@v8@@XZ
?get_trigger_async_id@AsyncResource@node@@QEBANXZ
?GetAgent@TraceEventHelper@tracing@node@@SAPEAVAgent@23@XZ
?GetAlignedPointerFromEmbedderData@Context@v8@@QEAAPEAXH@Z
?GetAlignedPointerFromInternalField@Object@v8@@QEAAPEAXH@Z
?GetAlignedPointerFromInternalField@Object@v8@@SAPEAXAEBV?$PersistentBase@VObject@v8@@@2@H@Z
?GetAlignedPointerFromInternalField@Object@v8@@SAPEAXAEBV?$TracedReferenceBase@VObject@v8@@@2@H@Z
?GetAllocationProfile@HeapProfiler@v8@@QEAAPEAVAllocationProfile@2@XZ
?GetArrayBufferAllocator@Isolate@v8@@QEAAPEAVAllocator@ArrayBuffer@2@XZ
?GetAsyncIterator@Symbol@v8@@SA?AV?$Local@VSymbol@v8@@@2@PEAVIsolate@2@@Z
?GetBackingStore@ArrayBuffer@v8@@QEAA?AV?$shared_ptr@VBackingStore@v8@@@__1@std@@XZ
?GetBackingStore@SharedArrayBuffer@v8@@QEAA?AV?$shared_ptr@VBackingStore@v8@@@__1@std@@XZ
?GetBailoutIdFromEntry@OSROptimizedCodeCache@internal@v8@@AEAA?AVBailoutId@23@H@Z
?GetBailoutReason@CpuProfileNode@v8@@QEBAPEBDXZ
?GetBoundFunction@Function@v8@@QEBA?AV?$Local@VValue@v8@@@2@XZ
?GetBuild@Version@internal@v8@@SAHXZ
?GetCacheUsage@NativeModuleEnv@native_module@node@@CAXAEBV?$FunctionCallbackInfo@VValue@v8@@@v8@@@Z
?GetChild@CpuProfileNode@v8@@QEBAPEBV12@H@Z
?GetChild@HeapGraphNode@v8@@QEBAPEBVHeapGraphEdge@2@H@Z
?GetChildrenCount@CpuProfileNode@v8@@QEBAHXZ
?GetChildrenCount@HeapGraphNode@v8@@QEBAHXZ
?GetChunkSize@OutputStream@v8@@UEAAHXZ
?GetCodeEventTypeName@CodeEvent@v8@@SAPEBDW4CodeEventType@2@@Z
?GetCodeFromEntry@OSROptimizedCodeCache@internal@v8@@AEAA?AVCode@23@H@Z
?GetCodeRange@Isolate@v8@@QEAAXPEAPEAXPEA_K@Z
?GetCodeSize@CodeEvent@v8@@QEAA_KXZ
?GetCodeStartAddress@CodeEvent@v8@@QEAA_KXZ
?GetCodeType@CodeEvent@v8@@QEAA?AW4CodeEventType@2@XZ
?GetColumn@StackFrame@v8@@QEBAHXZ
?GetColumnNumber@CpuProfileNode@v8@@QEBAHXZ
?GetColumnNumber@Location@v8@@QEAAHXZ
?GetComment@CodeEvent@v8@@QEAAPEBDXZ
?GetCompiledModule@WasmModuleObject@v8@@QEAA?AVCompiledWasmModule@2@XZ
?GetConfigString@NativeModuleEnv@native_module@node@@SA?AV?$Local@VString@v8@@@v8@@PEAVIsolate@5@@Z
?GetConstructorName@Object@v8@@QEAA?AV?$Local@VString@v8@@@2@XZ
?GetContents@ArrayBuffer@v8@@AEAA?AVContents@12@_N@Z
?GetContents@ArrayBuffer@v8@@QEAA?AVContents@12@XZ
?GetContents@SharedArrayBuffer@v8@@AEAA?AVContents@12@_N@Z
?GetContents@SharedArrayBuffer@v8@@QEAA?AVContents@12@XZ
?getCounterPtr@Counters@V8Inspector@v8_inspector@@CAPEAHPEBD@Z
?getCountersMap@Counters@V8Inspector@v8_inspector@@QEBAAEBV?$unordered_map@V?$basic_string@DU?$char_traits@D@__1@std@@V?$allocator@D@23@@__1@std@@HU?$hash@V?$basic_string@DU?$char_traits@D@__1@std@@V?$allocator@D@23@@__1@std@@@23@U?$equal_to@V?$basic_string@DU?$char_traits@D@__1@std@@V?$allocator@D@23@@__1@std@@@23@V?$allocator@U?$pair@$$CBV?$basic_string@DU?$char_traits@D@__1@std@@V?$allocator@D@23@@__1@std@@H@__1@std@@@23@@__1@std@@XZ
?GetCurrent@Isolate@v8@@SAPEAV12@XZ
?GetCurrentContext@Isolate@v8@@QEAA?AV?$Local@VContext@v8@@@2@XZ
?GetCurrentDepth@MicrotasksScope@v8@@SAHPEAVIsolate@2@@Z
?GetCurrentEnvironment@node@@YAPEAVEnvironment@1@V?$Local@VContext@v8@@@v8@@@Z
?GetCurrentEventLoop@node@@YAPEAUuv_loop_s@@PEAVIsolate@v8@@@Z
?GetData@Isolate@v8@@QEAAPEAXI@Z
?GetDataFromSnapshotOnce@Context@v8@@AEAAPEA_K_K@Z
?GetDataFromSnapshotOnce@Isolate@v8@@AEAAPEA_K_K@Z
?GetDebugName@Function@v8@@QEBA?AV?$Local@VValue@v8@@@2@XZ
?GetDeoptInfos@CpuProfileNode@v8@@QEBAAEBV?$vector@UCpuProfileDeoptInfo@v8@@V?$allocator@UCpuProfileDeoptInfo@v8@@@__1@std@@@__1@std@@XZ
?GetDisplayName@Function@v8@@QEBA?AV?$Local@VValue@v8@@@2@XZ
?GetEmbedder@Version@internal@v8@@SAPEBDXZ
?GetEmbedderData@Context@v8@@QEAA?AV?$Local@VValue@v8@@@2@H@Z
?GetEmbedderHeapTracer@Isolate@v8@@QEAAPEAVEmbedderHeapTracer@2@XZ
?GetEndColumn@Message@v8@@QEBA?AV?$Maybe@H@2@V?$Local@VContext@v8@@@2@@Z
?GetEndColumn@Message@v8@@QEBAHXZ
?GetEndPosition@Message@v8@@QEBAHXZ
?GetEndTime@CpuProfile@v8@@QEBA_JXZ
?GetEnteredContext@Isolate@v8@@QEAA?AV?$Local@VContext@v8@@@2@XZ
?GetEnteredOrMicrotaskContext@Isolate@v8@@QEAA?AV?$Local@VContext@v8@@@2@XZ
?GetException@Module@v8@@QEBA?AV?$Local@VValue@v8@@@2@XZ
?GetExternalOneByteStringResource@String@v8@@QEBAPEBVExternalOneByteStringResource@12@XZ
?GetExternalStringResource@String@v8@@QEBAPEAVExternalStringResource@12@XZ
?GetExternalStringResourceBase@String@v8@@QEBAPEAVExternalStringResourceBase@12@PEAW4Encoding@12@@Z
?GetExternalStringResourceBaseSlow@String@v8@@AEBAPEAVExternalStringResourceBase@12@PEAW4Encoding@12@@Z
?GetExternalStringResourceSlow@String@v8@@AEBAPEAVExternalStringResource@12@XZ
?GetExtrasBindingObject@Context@v8@@QEAA?AV?$Local@VObject@v8@@@2@XZ
?GetFlags@RegExp@v8@@QEBA?AW4Flags@12@XZ
?GetFrame@StackTrace@v8@@QEBA?AV?$Local@VStackFrame@v8@@@2@I@Z
?GetFrame@StackTrace@v8@@QEBA?AV?$Local@VStackFrame@v8@@@2@PEAVIsolate@2@I@Z
?GetFrameCount@StackTrace@v8@@QEBAHXZ
?GetFromNode@HeapGraphEdge@v8@@QEBAPEBVHeapGraphNode@2@XZ
?GetFunction@FunctionTemplate@v8@@QEAA?AV?$MaybeLocal@VFunction@v8@@@2@V?$Local@VContext@v8@@@2@@Z
?GetFunctionName@CodeEvent@v8@@QEAA?AV?$Local@VString@v8@@@2@XZ
?GetFunctionName@CpuProfileNode@v8@@QEBA?AV?$Local@VString@v8@@@2@XZ
?GetFunctionName@StackFrame@v8@@QEBA?AV?$Local@VString@v8@@@2@XZ
?GetFunctionNameStr@CpuProfileNode@v8@@QEBAPEBDXZ
?GetHandler@Proxy@v8@@QEAA?AV?$Local@VValue@v8@@@2@XZ
?GetHasInstance@Symbol@v8@@SA?AV?$Local@VSymbol@v8@@@2@PEAVIsolate@2@@Z
?GetHeapCodeAndMetadataStatistics@Isolate@v8@@QEAA_NPEAVHeapCodeStatistics@2@@Z
?GetHeapObjectStatisticsAtLastGC@Isolate@v8@@QEAA_NPEAVHeapObjectStatistics@2@_K@Z
?GetHeapProfiler@Isolate@v8@@QEAAPEAVHeapProfiler@2@XZ
?GetHeapSnapshot@HeapProfiler@v8@@QEAAPEBVHeapSnapshot@2@H@Z
?GetHeapSpaceStatistics@Isolate@v8@@QEAA_NPEAVHeapSpaceStatistics@2@_K@Z
?GetHeapStatistics@Isolate@v8@@QEAAXPEAVHeapStatistics@2@@Z
?GetHeapStats@HeapProfiler@v8@@QEAAIPEAVOutputStream@2@PEA_J@Z
?GetHitCount@CpuProfileNode@v8@@QEBAIXZ
?GetHitLineCount@CpuProfileNode@v8@@QEBAIXZ
?GetHostDefinedOptions@ScriptOrModule@v8@@QEAA?AV?$Local@VPrimitiveArray@v8@@@2@XZ
?GetId@HeapGraphNode@v8@@QEBAIXZ
?GetId@UnboundScript@v8@@QEAAHXZ
?GetIdentityHash@Module@v8@@QEBAHXZ
?GetIdentityHash@Name@v8@@QEAAHXZ
?GetIdentityHash@Object@v8@@QEAAHXZ
?GetIncumbentContext@Isolate@v8@@QEAA?AV?$Local@VContext@v8@@@2@XZ
?GetInferredName@Function@v8@@QEBA?AV?$Local@VValue@v8@@@2@XZ
?GetInternalField@Object@v8@@QEAA?AV?$Local@VValue@v8@@@2@H@Z
?GetIsConcatSpreadable@Symbol@v8@@SA?AV?$Local@VSymbol@v8@@@2@PEAVIsolate@2@@Z
?GetIsolate@Context@v8@@QEAAPEAVIsolate@2@XZ
?GetIsolate@HandleScope@v8@@QEBAPEAVIsolate@2@XZ
?GetIsolate@Message@v8@@QEBAPEAVIsolate@2@XZ
?GetIsolate@Object@v8@@QEAAPEAVIsolate@2@XZ
?GetIsolate@SnapshotCreator@v8@@QEAAPEAVIsolate@2@XZ
?GetIterator@Symbol@v8@@SA?AV?$Local@VSymbol@v8@@@2@PEAVIsolate@2@@Z
?GetLineNumber@CpuProfileNode@v8@@QEBAHXZ
?GetLineNumber@Location@v8@@QEAAHXZ
?GetLineNumber@Message@v8@@QEBA?AV?$Maybe@H@2@V?$Local@VContext@v8@@@2@@Z
?GetLineNumber@StackFrame@v8@@QEBAHXZ
?GetLineNumber@UnboundScript@v8@@QEAAHH@Z
?GetLineTicks@CpuProfileNode@v8@@QEBA_NPEAULineTick@12@I@Z
?GetMainThreadMultiIsolatePlatform@node@@YAPEAVMultiIsolatePlatform@1@XZ
?GetMajor@Version@internal@v8@@SAHXZ
?GetMatch@Symbol@v8@@SA?AV?$Local@VSymbol@v8@@@2@PEAVIsolate@2@@Z
?GetMaxSnapshotJSObjectId@HeapSnapshot@v8@@QEBAIXZ
?GetMicrotasksPolicy@Isolate@v8@@QEBA?AW4MicrotasksPolicy@2@XZ
?GetMinor@Version@internal@v8@@SAHXZ
?GetModuleCategories@NativeModuleEnv@native_module@node@@CAXV?$Local@VName@v8@@@v8@@AEBV?$PropertyCallbackInfo@VValue@v8@@@5@@Z
?GetModuleNamespace@Module@v8@@QEAA?AV?$Local@VValue@v8@@@2@XZ
?GetModuleRequest@Module@v8@@QEBA?AV?$Local@VString@v8@@@2@H@Z
?GetModuleRequestLocation@Module@v8@@QEBA?AVLocation@2@H@Z
?GetModuleRequestsLength@Module@v8@@QEBAHXZ
?GetName@Function@v8@@QEBA?AV?$Local@VValue@v8@@@2@XZ
?GetName@HeapGraphEdge@v8@@QEBA?AV?$Local@VValue@v8@@@2@XZ
?GetName@HeapGraphNode@v8@@QEBA?AV?$Local@VString@v8@@@2@XZ
?GetNativeFunctionTemplate@Extension@v8@@UEAA?AV?$Local@VFunctionTemplate@v8@@@2@PEAVIsolate@2@V?$Local@VString@v8@@@2@@Z
?GetNode@HeapSnapshot@v8@@QEBAPEBVHeapGraphNode@2@H@Z
?GetNodeById@HeapSnapshot@v8@@QEBAPEBVHeapGraphNode@2@I@Z
?GetNodeId@CpuProfileNode@v8@@QEBAIXZ
?GetNodesCount@HeapSnapshot@v8@@QEBAHXZ
?GetNumberOfDataSlots@Isolate@v8@@SAIXZ
?GetNumberOfEmbedderDataFields@Context@v8@@QEAAIXZ
?GetObjectId@HeapProfiler@v8@@QEAAIPEAX@Z
?GetObjectId@HeapProfiler@v8@@QEAAIV?$Local@VValue@v8@@@2@@Z
?GetOptimizedCode@OSROptimizedCodeCache@internal@v8@@QEAA?AVCode@23@V?$Handle@VSharedFunctionInfo@internal@v8@@@23@VBailoutId@23@PEAVIsolate@23@@Z
?GetOwnPropertyDescriptor@Object@v8@@QEAA?AV?$MaybeLocal@VValue@v8@@@2@V?$Local@VContext@v8@@@2@V?$Local@VName@v8@@@2@@Z
?GetOwnPropertyNames@Object@v8@@QEAA?AV?$MaybeLocal@VArray@v8@@@2@V?$Local@VContext@v8@@@2@@Z
?GetOwnPropertyNames@Object@v8@@QEAA?AV?$MaybeLocal@VArray@v8@@@2@V?$Local@VContext@v8@@@2@W4PropertyFilter@2@W4KeyConversionMode@2@@Z
?GetParent@CpuProfileNode@v8@@QEBAPEBV12@XZ
?GetParentHandle@Agent@inspector@node@@QEAA?AV?$unique_ptr@VParentInspectorHandle@inspector@node@@U?$default_delete@VParentInspectorHandle@inspector@node@@@__1@std@@@__1@std@@HAEBV?$basic_string@DU?$char_traits@D@__1@std@@V?$allocator@D@23@@56@@Z
?GetPatch@Version@internal@v8@@SAHXZ
?GetPreviousCodeStartAddress@CodeEvent@v8@@QEAA_KXZ
?GetPrivate@Object@v8@@QEAA?AV?$MaybeLocal@VValue@v8@@@2@V?$Local@VContext@v8@@@2@V?$Local@VPrivate@v8@@@2@@Z
?GetPromise@Resolver@Promise@v8@@QEAA?AV?$Local@VPromise@v8@@@3@XZ
?GetPromise@WasmModuleObjectBuilderStreaming@v8@@QEAA?AV?$Local@VPromise@v8@@@2@XZ
?GetPropertyAttributes@Object@v8@@QEAA?AV?$Maybe@W4PropertyAttribute@v8@@@2@V?$Local@VContext@v8@@@2@V?$Local@VValue@v8@@@2@@Z
?GetPropertyNames@Object@v8@@QEAA?AV?$MaybeLocal@VArray@v8@@@2@V?$Local@VContext@v8@@@2@@Z
?GetPropertyNames@Object@v8@@QEAA?AV?$MaybeLocal@VArray@v8@@@2@V?$Local@VContext@v8@@@2@W4KeyCollectionMode@2@W4PropertyFilter@2@W4IndexFilter@2@W4KeyConversionMode@2@@Z
?GetPrototype@Object@v8@@QEAA?AV?$Local@VValue@v8@@@2@XZ
?GetRealNamedProperty@Object@v8@@QEAA?AV?$MaybeLocal@VValue@v8@@@2@V?$Local@VContext@v8@@@2@V?$Local@VName@v8@@@2@@Z
?GetRealNamedPropertyAttributes@Object@v8@@QEAA?AV?$Maybe@W4PropertyAttribute@v8@@@2@V?$Local@VContext@v8@@@2@V?$Local@VName@v8@@@2@@Z
?GetRealNamedPropertyAttributesInPrototypeChain@Object@v8@@QEAA?AV?$Maybe@W4PropertyAttribute@v8@@@2@V?$Local@VContext@v8@@@2@V?$Local@VName@v8@@@2@@Z
?GetRealNamedPropertyInPrototypeChain@Object@v8@@QEAA?AV?$MaybeLocal@VValue@v8@@@2@V?$Local@VContext@v8@@@2@V?$Local@VName@v8@@@2@@Z
?GetReplace@Symbol@v8@@SA?AV?$Local@VSymbol@v8@@@2@PEAVIsolate@2@@Z
?GetResourceName@ScriptOrModule@v8@@QEAA?AV?$Local@VValue@v8@@@2@XZ
?GetRoot@HeapSnapshot@v8@@QEBAPEBVHeapGraphNode@2@XZ
?GetSample@CpuProfile@v8@@QEBAPEBVCpuProfileNode@2@H@Z
?GetSamplesCount@CpuProfile@v8@@QEBAHXZ
?GetSampleTimestamp@CpuProfile@v8@@QEBA_JH@Z
?GetScriptColumn@CodeEvent@v8@@QEAAHXZ
?GetScriptColumnNumber@Function@v8@@QEBAHXZ
?GetScriptId@CpuProfileNode@v8@@QEBAHXZ
?GetScriptId@StackFrame@v8@@QEBAHXZ
?GetScriptLine@CodeEvent@v8@@QEAAHXZ
?GetScriptLineNumber@Function@v8@@QEBAHXZ
?GetScriptName@CodeEvent@v8@@QEAA?AV?$Local@VString@v8@@@2@XZ
?GetScriptName@StackFrame@v8@@QEBA?AV?$Local@VString@v8@@@2@XZ
?GetScriptName@UnboundScript@v8@@QEAA?AV?$Local@VValue@v8@@@2@XZ
?GetScriptNameOrSourceURL@StackFrame@v8@@QEBA?AV?$Local@VString@v8@@@2@XZ
?GetScriptOrigin@Function@v8@@QEBA?AVScriptOrigin@2@XZ
?GetScriptOrigin@Message@v8@@QEBA?AVScriptOrigin@2@XZ
?GetScriptResourceName@CpuProfileNode@v8@@QEBA?AV?$Local@VString@v8@@@2@XZ
?GetScriptResourceName@Message@v8@@QEBA?AV?$Local@VValue@v8@@@2@XZ
?GetScriptResourceNameStr@CpuProfileNode@v8@@QEBAPEBDXZ
?GetSearch@Symbol@v8@@SA?AV?$Local@VSymbol@v8@@@2@PEAVIsolate@2@@Z
?GetSecurityToken@Context@v8@@QEAA?AV?$Local@VValue@v8@@@2@XZ
?GetSFIFromEntry@OSROptimizedCodeCache@internal@v8@@AEAA?AVSharedFunctionInfo@23@H@Z
?GetShallowSize@HeapGraphNode@v8@@QEBA_KXZ
?GetSharedArrayBufferFromId@Delegate@ValueDeserializer@v8@@UEAA?AV?$MaybeLocal@VSharedArrayBuffer@v8@@@3@PEAVIsolate@3@I@Z
?GetSharedArrayBufferId@Delegate@ValueSerializer@v8@@UEAA?AV?$Maybe@I@3@PEAVIsolate@3@V?$Local@VSharedArrayBuffer@v8@@@3@@Z
?GetSharedMemoryStatistics@V8@v8@@SAXPEAVSharedMemoryStatistics@2@@Z
?GetSnapshotCount@HeapProfiler@v8@@QEAAHXZ
?GetSONAME@Version@internal@v8@@SAXV?$Vector@D@23@@Z
?GetSource@RegExp@v8@@QEBA?AV?$Local@VString@v8@@@2@XZ
?GetSourceLine@Message@v8@@QEBA?AV?$MaybeLocal@VString@v8@@@2@V?$Local@VContext@v8@@@2@@Z
?GetSourceMappingURL@UnboundScript@v8@@QEAA?AV?$Local@VValue@v8@@@2@XZ
?GetSourceObject@NativeModuleEnv@native_module@node@@SA?AV?$Local@VObject@v8@@@v8@@V?$Local@VContext@v8@@@5@@Z
?GetSourceType@CpuProfileNode@v8@@QEBA?AW4SourceType@12@XZ
?GetSourceURL@UnboundScript@v8@@QEAA?AV?$Local@VValue@v8@@@2@XZ
?GetSplit@Symbol@v8@@SA?AV?$Local@VSymbol@v8@@@2@PEAVIsolate@2@@Z
?GetStackSample@Isolate@v8@@QEAAXAEBURegisterState@2@PEAPEAX_KPEAUSampleInfo@2@@Z
?GetStackSample@TickSample@internal@v8@@SA_NPEAVIsolate@23@PEAURegisterState@3@W4RecordCEntryFrame@123@PEAPEAX_KPEAUSampleInfo@3@_N3@Z
?GetStackTrace@Exception@v8@@SA?AV?$Local@VStackTrace@v8@@@2@V?$Local@VValue@v8@@@2@@Z
?GetStackTrace@Message@v8@@QEBA?AV?$Local@VStackTrace@v8@@@2@XZ
?GetStartColumn@Message@v8@@QEBA?AV?$Maybe@H@2@V?$Local@VContext@v8@@@2@@Z
?GetStartColumn@Message@v8@@QEBAHXZ
?GetStartPosition@Message@v8@@QEBAHXZ
?GetStartTime@CpuProfile@v8@@QEBA_JXZ
?GetStatus@Module@v8@@QEBA?AW4Status@12@XZ
?GetStressRuns@Testing@v8@@SAHXZ
?GetString@Version@internal@v8@@SAXV?$Vector@D@23@@Z
?GetTarget@Proxy@v8@@QEAA?AV?$Local@VValue@v8@@@2@XZ
?GetTitle@CpuProfile@v8@@QEBA?AV?$Local@VString@v8@@@2@XZ
?GetToNode@HeapGraphEdge@v8@@QEBAPEBVHeapGraphNode@2@XZ
?GetTopDownRoot@CpuProfile@v8@@QEBAPEBVCpuProfileNode@2@XZ
?GetToPrimitive@Symbol@v8@@SA?AV?$Local@VSymbol@v8@@@2@PEAVIsolate@2@@Z
?GetToStringTag@Symbol@v8@@SA?AV?$Local@VSymbol@v8@@@2@PEAVIsolate@2@@Z
?GetTracingController@TraceEventHelper@tracing@node@@SAPEAVTracingController@23@XZ
?GetType@HeapGraphEdge@v8@@QEBA?AW4Type@12@XZ
?GetType@HeapGraphNode@v8@@QEBA?AW4Type@12@XZ
?GetUnboundModuleScript@Module@v8@@QEAA?AV?$Local@VUnboundModuleScript@v8@@@2@XZ
?GetUnboundScript@Script@v8@@QEAA?AV?$Local@VUnboundScript@v8@@@2@XZ
?GetUnscopables@Symbol@v8@@SA?AV?$Local@VSymbol@v8@@@2@PEAVIsolate@2@@Z
?GetUnwindState@Isolate@v8@@QEAA?AUUnwindState@2@XZ
?GetVersion@V8@v8@@SAPEBDXZ
?GetVersion@Version@internal@v8@@SAPEBDXZ
?GetWasmFunctionIndex@Message@v8@@QEBAHXZ
?GetWasmModuleFromId@Delegate@ValueDeserializer@v8@@UEAA?AV?$MaybeLocal@VWasmModuleObject@v8@@@3@PEAVIsolate@3@I@Z
?GetWasmModuleTransferId@Delegate@ValueSerializer@v8@@UEAA?AV?$Maybe@I@3@PEAVIsolate@3@V?$Local@VWasmModuleObject@v8@@@3@@Z
?GetWireBytesRef@CompiledWasmModule@v8@@QEAA?AV?$MemorySpan@$$CBE@2@XZ
?GetWireFormatVersion@ValueDeserializer@v8@@QEBAIXZ
?GetWorkerManager@Agent@inspector@node@@QEAA?AV?$shared_ptr@VWorkerManager@inspector@node@@@__1@std@@XZ
?GetWsUrl@Agent@inspector@node@@QEBA?AV?$basic_string@DU?$char_traits@D@__1@std@@V?$allocator@D@23@@__1@std@@XZ
?Global@Context@v8@@QEAA?AV?$Local@VObject@v8@@@2@XZ
?GlobalizeReference@V8@v8@@CAPEA_KPEAVIsolate@internal@2@PEA_K@Z
?GlobalizeTracedReference@V8@v8@@CAPEA_KPEAVIsolate@internal@2@PEA_K1_N@Z
?GrowOSRCache@OSROptimizedCodeCache@internal@v8@@CAHV?$Handle@VNativeContext@internal@v8@@@23@PEAV?$Handle@VOSROptimizedCodeCache@internal@v8@@@23@@Z
?Has@Map@v8@@QEAA?AV?$Maybe@_N@2@V?$Local@VContext@v8@@@2@V?$Local@VValue@v8@@@2@@Z
?Has@Object@v8@@QEAA?AV?$Maybe@_N@2@V?$Local@VContext@v8@@@2@I@Z
?Has@Object@v8@@QEAA?AV?$Maybe@_N@2@V?$Local@VContext@v8@@@2@V?$Local@VValue@v8@@@2@@Z
?Has@Set@v8@@QEAA?AV?$Maybe@_N@2@V?$Local@VContext@v8@@@2@V?$Local@VValue@v8@@@2@@Z
?has_configurable@PropertyDescriptor@v8@@QEBA_NXZ
?has_enumerable@PropertyDescriptor@v8@@QEBA_NXZ
?has_filter_context@CpuProfilingOptions@v8@@AEBA_NXZ
?has_get@PropertyDescriptor@v8@@QEBA_NXZ
?has_set@PropertyDescriptor@v8@@QEBA_NXZ
?has_value@PropertyDescriptor@v8@@QEBA_NXZ
?has_writable@PropertyDescriptor@v8@@QEBA_NXZ
?HasBuffer@ArrayBufferView@v8@@QEBA_NXZ
?HasCaught@TryCatch@v8@@QEBA_NXZ
?Hash@Version@internal@v8@@SAIXZ
?HasHandler@Promise@v8@@QEAA_NXZ
?HasIndexedLookupInterceptor@Object@v8@@QEAA_NXZ
?HasInstance@Buffer@node@@YA_NV?$Local@VObject@v8@@@v8@@@Z
?HasInstance@Buffer@node@@YA_NV?$Local@VValue@v8@@@v8@@@Z
?HasInstance@FunctionTemplate@v8@@QEAA_NV?$Local@VValue@v8@@@2@@Z
?HasNamedLookupInterceptor@Object@v8@@QEAA_NXZ
?HasOwnProperty@Object@v8@@QEAA?AV?$Maybe@_N@2@V?$Local@VContext@v8@@@2@I@Z
?HasOwnProperty@Object@v8@@QEAA?AV?$Maybe@_N@2@V?$Local@VContext@v8@@@2@V?$Local@VName@v8@@@2@@Z
?HasPrivate@Object@v8@@QEAA?AV?$Maybe@_N@2@V?$Local@VContext@v8@@@2@V?$Local@VPrivate@v8@@@2@@Z
?HasRealIndexedProperty@Object@v8@@QEAA?AV?$Maybe@_N@2@V?$Local@VContext@v8@@@2@I@Z
?HasRealNamedCallbackProperty@Object@v8@@QEAA?AV?$Maybe@_N@2@V?$Local@VContext@v8@@@2@V?$Local@VName@v8@@@2@@Z
?HasRealNamedProperty@Object@v8@@QEAA?AV?$Maybe@_N@2@V?$Local@VContext@v8@@@2@V?$Local@VName@v8@@@2@@Z
?HasTerminated@TryCatch@v8@@QEBA_NXZ
?heap_size_limit@HeapStatistics@v8@@QEAA_KXZ
?host_port@Agent@inspector@node@@QEAA?AV?$shared_ptr@VHostPort@node@@@__1@std@@XZ
?IdleNotificationDeadline@Isolate@v8@@QEAA_NN@Z
?impl@StreamedSource@ScriptCompiler@v8@@QEBAPEAUScriptStreamingData@internal@3@XZ
?Implies@?$OptionsParser@VDebugOptions@node@@@options_parser@node@@QEAAXPEBD0@Z
?ImpliesNot@?$OptionsParser@VDebugOptions@node@@@options_parser@node@@QEAAXPEBD0@Z
?InContext@Isolate@v8@@QEAA_NXZ
?IncreaseAllocatedSize@EmbedderHeapTracer@v8@@QEAAX_K@Z
?IncreaseHeapLimitForDebugging@Isolate@v8@@QEAAXXZ
?Inherit@FunctionTemplate@v8@@QEAAXV?$Local@VFunctionTemplate@v8@@@2@@Z
?Init@node@@YAXPEAHPEAPEBD0PEAPEAPEBD@Z
?Init@TickSample@internal@v8@@QEAAXPEAVIsolate@23@AEBURegisterState@3@W4RecordCEntryFrame@123@_N3VTimeDelta@base@3@@Z
?initial_old_generation_size_in_bytes@ResourceConstraints@v8@@QEBA_KXZ
?initial_young_generation_size_in_bytes@ResourceConstraints@v8@@QEBA_KXZ
?Initialize@HandleScope@v8@@IEAAXPEAVIsolate@2@@Z
?Initialize@Isolate@v8@@SAXPEAV12@AEBUCreateParams@12@@Z
?Initialize@Locker@v8@@AEAAXPEAVIsolate@2@@Z
?Initialize@NativeModuleEnv@native_module@node@@SAXV?$Local@VObject@v8@@@v8@@V?$Local@VValue@v8@@@5@V?$Local@VContext@v8@@@5@PEAX@Z
?Initialize@Unlocker@v8@@AEAAXPEAVIsolate@2@@Z
?Initialize@V8@v8@@SA_NXZ
?InitializeCodeCache@NativeModuleEnv@native_module@node@@SAXXZ
?InitializeContext@node@@YA_NV?$Local@VContext@v8@@@v8@@@Z
?InitializeEntry@OSROptimizedCodeCache@internal@v8@@AEAAXHVSharedFunctionInfo@23@VCode@23@VBailoutId@23@@Z
?InitializeExternalStartupData@V8@v8@@SAXPEBD@Z
?InitializeExternalStartupDataFromFile@V8@v8@@SAXPEBD@Z
?InitializeICU@V8@v8@@SA_NPEBD@Z
?InitializeICUDefaultLocation@V8@v8@@SA_NPEBD0@Z
?InitializePlatform@V8@v8@@SAXPEAVPlatform@2@@Z
?insert@?$vector@UCpuProfileDeoptFrame@v8@@V?$allocator@UCpuProfileDeoptFrame@v8@@@__1@std@@@__1@std@@QEAA?AV?$__wrap_iter@PEAUCpuProfileDeoptFrame@v8@@@23@V?$__wrap_iter@PEBUCpuProfileDeoptFrame@v8@@@23@$$QEAUCpuProfileDeoptFrame@v8@@@Z
?insert@?$vector@UCpuProfileDeoptFrame@v8@@V?$allocator@UCpuProfileDeoptFrame@v8@@@__1@std@@@__1@std@@QEAA?AV?$__wrap_iter@PEAUCpuProfileDeoptFrame@v8@@@23@V?$__wrap_iter@PEBUCpuProfileDeoptFrame@v8@@@23@_KAEBUCpuProfileDeoptFrame@v8@@@Z
?insert@?$vector@UCpuProfileDeoptFrame@v8@@V?$allocator@UCpuProfileDeoptFrame@v8@@@__1@std@@@__1@std@@QEAA?AV?$__wrap_iter@PEAUCpuProfileDeoptFrame@v8@@@23@V?$__wrap_iter@PEBUCpuProfileDeoptFrame@v8@@@23@AEBUCpuProfileDeoptFrame@v8@@@Z
?insert@?$vector@UCpuProfileDeoptFrame@v8@@V?$allocator@UCpuProfileDeoptFrame@v8@@@__1@std@@@__1@std@@QEAA?AV?$__wrap_iter@PEAUCpuProfileDeoptFrame@v8@@@23@V?$__wrap_iter@PEBUCpuProfileDeoptFrame@v8@@@23@V?$initializer_list@UCpuProfileDeoptFrame@v8@@@3@@Z
?insert@?$vector@UCpuProfileDeoptInfo@v8@@V?$allocator@UCpuProfileDeoptInfo@v8@@@__1@std@@@__1@std@@QEAA?AV?$__wrap_iter@PEAUCpuProfileDeoptInfo@v8@@@23@V?$__wrap_iter@PEBUCpuProfileDeoptInfo@v8@@@23@$$QEAUCpuProfileDeoptInfo@v8@@@Z
?insert@?$vector@UCpuProfileDeoptInfo@v8@@V?$allocator@UCpuProfileDeoptInfo@v8@@@__1@std@@@__1@std@@QEAA?AV?$__wrap_iter@PEAUCpuProfileDeoptInfo@v8@@@23@V?$__wrap_iter@PEBUCpuProfileDeoptInfo@v8@@@23@_KAEBUCpuProfileDeoptInfo@v8@@@Z
?insert@?$vector@UCpuProfileDeoptInfo@v8@@V?$allocator@UCpuProfileDeoptInfo@v8@@@__1@std@@@__1@std@@QEAA?AV?$__wrap_iter@PEAUCpuProfileDeoptInfo@v8@@@23@V?$__wrap_iter@PEBUCpuProfileDeoptInfo@v8@@@23@AEBUCpuProfileDeoptInfo@v8@@@Z
?insert@?$vector@UCpuProfileDeoptInfo@v8@@V?$allocator@UCpuProfileDeoptInfo@v8@@@__1@std@@@__1@std@@QEAA?AV?$__wrap_iter@PEAUCpuProfileDeoptInfo@v8@@@23@V?$__wrap_iter@PEBUCpuProfileDeoptInfo@v8@@@23@V?$initializer_list@UCpuProfileDeoptInfo@v8@@@3@@Z
?installAdditionalCommandLineAPI@V8InspectorClient@v8_inspector@@UEAAXV?$Local@VContext@v8@@@v8@@V?$Local@VObject@v8@@@4@@Z
?InstanceOf@Value@v8@@QEAA?AV?$Maybe@_N@2@V?$Local@VContext@v8@@@2@V?$Local@VObject@v8@@@2@@Z
?InstanceTemplate@FunctionTemplate@v8@@QEAA?AV?$Local@VObjectTemplate@v8@@@2@XZ
?InstantiateModule@Module@v8@@QEAA?AV?$Maybe@_N@2@V?$Local@VContext@v8@@@2@P6A?AV?$MaybeLocal@VModule@v8@@@2@0V?$Local@VString@v8@@@2@V?$Local@VModule@v8@@@2@@Z@Z
?Instrumentation@ReasonEnum@Paused@API@Debugger@protocol@v8_inspector@@3PEBDEB
?Int32Value@Value@v8@@QEBA?AV?$Maybe@H@2@V?$Local@VContext@v8@@@2@@Z
?Int32Value@Value@v8@@QEBAHXZ
?Int64Value@BigInt@v8@@QEBA_JPEA_N@Z
?IntegerValue@Value@v8@@QEBA?AV?$Maybe@_J@2@V?$Local@VContext@v8@@@2@@Z
?IntegerValue@Value@v8@@QEBA_JXZ
?InternalFieldCount@Object@v8@@QEAAHXZ
?InternalFieldCount@Object@v8@@SAHAEBV?$PersistentBase@VObject@v8@@@2@@Z
?InternalFieldCount@Object@v8@@SAHAEBV?$TracedReferenceBase@VObject@v8@@@2@@Z
?InternalFieldCount@ObjectTemplate@v8@@QEAAHXZ
?InternalFieldOutOfBounds@V8@v8@@CAXH@Z
?is8Bit@StringView@v8_inspector@@QEBA_NXZ
?IsActive@Agent@inspector@node@@QEAA_NXZ
?IsActive@Locker@v8@@SA_NXZ
?IsApiWrapper@Object@v8@@QEAA_NXZ
?IsArgumentsObject@Value@v8@@QEBA_NXZ
?IsArray@Value@v8@@QEBA_NXZ
?IsArrayBuffer@Value@v8@@QEBA_NXZ
?IsArrayBufferView@Value@v8@@QEBA_NXZ
?IsAsyncFunction@Value@v8@@QEBA_NXZ
?IsBigInt64Array@Value@v8@@QEBA_NXZ
?IsBigInt@Value@v8@@QEBA_NXZ
?IsBigIntObject@Value@v8@@QEBA_NXZ
?IsBigUint64Array@Value@v8@@QEBA_NXZ
?IsBoolean@Value@v8@@QEBA_NXZ
?IsBooleanObject@Value@v8@@QEBA_NXZ
?IsCacheable@ExternalStringResourceBase@String@v8@@UEBA_NXZ
?IsCallable@Object@v8@@QEAA_NXZ
?IsCandidate@Version@internal@v8@@SA_NXZ
?IsCodeGenerationFromStringsAllowed@Context@v8@@QEAA_NXZ
?IsConstructor@Object@v8@@QEAA_NXZ
?IsConstructor@StackFrame@v8@@QEBA_NXZ
?IsDataView@Value@v8@@QEBA_NXZ
?IsDate@Value@v8@@QEBA_NXZ
?IsDead@Isolate@v8@@QEAA_NXZ
?IsDetachable@ArrayBuffer@v8@@QEBA_NXZ
?IsEval@StackFrame@v8@@QEBA_NXZ
?IsExecutionTerminating@Isolate@v8@@QEAA_NXZ
?IsExternal@ArrayBuffer@v8@@QEBA_NXZ
?IsExternal@SharedArrayBuffer@v8@@QEBA_NXZ
?IsExternal@String@v8@@QEBA_NXZ
?IsExternal@Value@v8@@QEBA_NXZ
?IsExternalOneByte@String@v8@@QEBA_NXZ
?IsFalse@Value@v8@@QEBA_NXZ
?IsFloat32Array@Value@v8@@QEBA_NXZ
?IsFloat64Array@Value@v8@@QEBA_NXZ
?IsFunction@Value@v8@@QEBA_NXZ
?IsGeneratorFunction@Value@v8@@QEBA_NXZ
?IsGeneratorObject@Value@v8@@QEBA_NXZ
?IsHeapLimitIncreasedForDebugging@Isolate@v8@@QEAA_NXZ
?IsImmutableProto@ObjectTemplate@v8@@QEAA_NXZ
?isInspectableHeapObject@V8InspectorClient@v8_inspector@@UEAA_NV?$Local@VObject@v8@@@v8@@@Z
?IsInt16Array@Value@v8@@QEBA_NXZ
?IsInt32@Value@v8@@QEBA_NXZ
?IsInt32Array@Value@v8@@QEBA_NXZ
?IsInt8Array@Value@v8@@QEBA_NXZ
?IsInUse@Isolate@v8@@QEAA_NXZ
?IsInvalid@V8StackTraceId@v8_inspector@@QEBA_NXZ
?IsListening@Agent@inspector@node@@QEAA_NXZ
?IsLocked@Locker@v8@@SA_NPEAVIsolate@2@@Z
?IsMap@Value@v8@@QEBA_NXZ
?IsMapIterator@Value@v8@@QEBA_NXZ
?IsModuleNamespaceObject@Value@v8@@QEBA_NXZ
?IsName@Value@v8@@QEBA_NXZ
?IsNativeError@Value@v8@@QEBA_NXZ
?IsNull@Value@v8@@QEBA_NXZ
?IsNullOrUndefined@Value@v8@@QEBA_NXZ
?IsNumber@Value@v8@@QEBA_NXZ
?IsNumberObject@Value@v8@@QEBA_NXZ
?IsObject@Value@v8@@QEBA_NXZ
?isolate@EmbedderHeapTracer@v8@@QEBAPEAVIsolate@2@XZ
?IsolateFromNeverReadOnlySpaceObject@internal@v8@@YAPEAVIsolate@12@_K@Z
?IsolateInBackgroundNotification@Isolate@v8@@QEAAXXZ
?IsolateInForegroundNotification@Isolate@v8@@QEAAXXZ
?IsOneByte@String@v8@@QEBA_NXZ
?IsOpaque@Message@v8@@QEBA_NXZ
?IsPromise@Value@v8@@QEBA_NXZ
?IsProxy@Value@v8@@QEBA_NXZ
?IsRegExp@Value@v8@@QEBA_NXZ
?IsRevoked@Proxy@v8@@QEAA_NXZ
?IsRootForNonTracingGC@EmbedderHeapTracer@v8@@UEAA_NAEBV?$TracedGlobal@VValue@v8@@@2@@Z
?IsRootForNonTracingGC@EmbedderHeapTracer@v8@@UEAA_NAEBV?$TracedReference@VValue@v8@@@2@@Z
?IsRunningMicrotasks@MicrotasksScope@v8@@SA_NPEAVIsolate@2@@Z
?IsScriptSharedCrossOrigin@CpuProfileNode@v8@@QEBA_NXZ
?IsSet@Value@v8@@QEBA_NXZ
?IsSetIterator@Value@v8@@QEBA_NXZ
?IsShared@BackingStore@v8@@QEBA_NXZ
?IsSharedArrayBuffer@Value@v8@@QEBA_NXZ
?IsSharedCrossOrigin@Message@v8@@QEBA_NXZ
?IsString@Value@v8@@QEBA_NXZ
?IsStringObject@Value@v8@@QEBA_NXZ
?IsSymbol@Value@v8@@QEBA_NXZ
?IsSymbolObject@Value@v8@@QEBA_NXZ
?IsTrue@Value@v8@@QEBA_NXZ
?IsTypedArray@Value@v8@@QEBA_NXZ
?IsUint16Array@Value@v8@@QEBA_NXZ
?IsUint32@Value@v8@@QEBA_NXZ
?IsUint32Array@Value@v8@@QEBA_NXZ
?IsUint8Array@Value@v8@@QEBA_NXZ
?IsUint8ClampedArray@Value@v8@@QEBA_NXZ
?IsUndefined@Value@v8@@QEBA_NXZ
?IsUserJavaScript@StackFrame@v8@@QEBA_NXZ
?IsVerbose@TryCatch@v8@@QEBA_NXZ
?IsWasm@StackFrame@v8@@QEBA_NXZ
?IsWeakMap@Value@v8@@QEBA_NXZ
?IsWeakSet@Value@v8@@QEBA_NXZ
?IsWebAssemblyCompiledModule@Value@v8@@QEBA_NXZ
?IterateTracedGlobalHandles@EmbedderHeapTracer@v8@@QEAAXPEAVTracedGlobalHandleVisitor@12@@Z
?JSStackComparableAddress@BackupIncumbentScope@Context@v8@@QEBA_KXZ
?JSStackComparableAddress@TryCatch@v8@@SAPEAXPEAV12@@Z
?kEmbedderFieldCount@ArrayBuffer@v8@@2HB
?kEmbedderFieldCount@ArrayBufferView@v8@@2HB
?kEmbedderFieldCount@Promise@v8@@2HB
?kFlagCount@RegExp@v8@@2HB
?kInitialLength@OSROptimizedCodeCache@internal@v8@@2HB
?kInternalFieldCount@ArrayBuffer@v8@@2HB
?kInternalFieldCount@ArrayBufferView@v8@@2HB
?kInternalFieldCount@SharedArrayBuffer@v8@@2HB
?kLineOffsetNotFound@Function@v8@@2HB
?kMaxFramesCount@TickSample@internal@v8@@2IB
?kMaxFramesCountLog2@TickSample@internal@v8@@2IB
?kMaxLength@OSROptimizedCodeCache@internal@v8@@2HB
?kMaxLength@String@v8@@2HB
?kMaxLength@TypedArray@v8@@2_KB
?kMB@ResourceConstraints@v8@@0_KB
?kNoColumnInfo@Message@v8@@2HB
?kNoColumnNumberInfo@AllocationProfile@v8@@2HB
?kNoColumnNumberInfo@CpuProfileNode@v8@@2HB
?kNodeContextTagPtr@Environment@node@@0QEAXEA
?kNoLineNumberInfo@AllocationProfile@v8@@2HB
?kNoLineNumberInfo@CpuProfileNode@v8@@2HB
?kNoLineNumberInfo@Message@v8@@2HB
?kNoSampleLimit@CpuProfilingOptions@v8@@2IB
?kNoScriptId@UnboundScript@v8@@2HB
?kNoScriptIdInfo@Message@v8@@2HB
?kNoWasmFunctionIndexInfo@Message@v8@@2HB
?kPersistentHandleNoClassId@HeapProfiler@v8@@2GB
?kUnknownObjectId@HeapProfiler@v8@@2IB
?Length@Array@v8@@QEBAIXZ
?Length@Buffer@node@@YA_KV?$Local@VObject@v8@@@v8@@@Z
?Length@Buffer@node@@YA_KV?$Local@VValue@v8@@@v8@@@Z
?Length@PrimitiveArray@v8@@QEBAHXZ
?Length@String@v8@@QEBAHXZ
?length@StringView@v8_inspector@@QEBA_KXZ
?Length@TypedArray@v8@@QEAA_KXZ
?length@Utf8Value@String@v8@@QEBAHXZ
?length@Value@String@v8@@QEBAHXZ
?LoadEnvironment@node@@YAXPEAVEnvironment@1@@Z
?LocaleConfigurationChangeNotification@Isolate@v8@@QEAAXXZ
?Lock@ExternalStringResourceBase@String@v8@@MEBAXXZ
?LookupAndCompile@NativeModuleEnv@native_module@node@@SA?AV?$MaybeLocal@VFunction@v8@@@v8@@V?$Local@VContext@v8@@@5@PEBDPEAV?$vector@V?$Local@VString@v8@@@v8@@V?$allocator@V?$Local@VString@v8@@@v8@@@__1@std@@@__1@std@@PEAVEnvironment@3@@Z
?LowMemoryNotification@Isolate@v8@@QEAAXXZ
?major_@Version@internal@v8@@0HA
?MakeCallback@AsyncResource@node@@QEAA?AV?$MaybeLocal@VValue@v8@@@v8@@PEBDHPEAV?$Local@VValue@v8@@@4@@Z
?MakeCallback@AsyncResource@node@@QEAA?AV?$MaybeLocal@VValue@v8@@@v8@@V?$Local@VFunction@v8@@@4@HPEAV?$Local@VValue@v8@@@4@@Z
?MakeCallback@AsyncResource@node@@QEAA?AV?$MaybeLocal@VValue@v8@@@v8@@V?$Local@VString@v8@@@4@HPEAV?$Local@VValue@v8@@@4@@Z
?MakeCallback@node@@YA?AV?$Local@VValue@v8@@@v8@@PEAVIsolate@3@V?$Local@VObject@v8@@@3@PEBDHPEAV23@@Z
?MakeCallback@node@@YA?AV?$Local@VValue@v8@@@v8@@PEAVIsolate@3@V?$Local@VObject@v8@@@3@V?$Local@VFunction@v8@@@3@HPEAV23@@Z
?MakeCallback@node@@YA?AV?$Local@VValue@v8@@@v8@@PEAVIsolate@3@V?$Local@VObject@v8@@@3@V?$Local@VString@v8@@@3@HPEAV23@@Z
?MakeCallback@node@@YA?AV?$MaybeLocal@VValue@v8@@@v8@@PEAVIsolate@3@V?$Local@VObject@v8@@@3@PEBDHPEAV?$Local@VValue@v8@@@3@Uasync_context@1@@Z
?MakeCallback@node@@YA?AV?$MaybeLocal@VValue@v8@@@v8@@PEAVIsolate@3@V?$Local@VObject@v8@@@3@V?$Local@VFunction@v8@@@3@HPEAV?$Local@VValue@v8@@@3@Uasync_context@1@@Z
?MakeCallback@node@@YA?AV?$MaybeLocal@VValue@v8@@@v8@@PEAVIsolate@3@V?$Local@VObject@v8@@@3@V?$Local@VString@v8@@@3@HPEAV?$Local@VValue@v8@@@3@Uasync_context@1@@Z
?MakeExternal@String@v8@@QEAA_NPEAVExternalOneByteStringResource@12@@Z
?MakeExternal@String@v8@@QEAA_NPEAVExternalStringResource@12@@Z
?MakeWeak@V8@v8@@CAXPEA_KPEAXP6AXAEBV?$WeakCallbackInfo@X@2@@ZW4WeakCallbackType@2@@Z
?MakeWeak@V8@v8@@CAXPEAPEA_K@Z
?malloced_memory@HeapStatistics@v8@@QEAA_KXZ
?MarkAsFailed@InternalCallbackScope@node@@QEAAXXZ
?MarkAsHandled@Promise@v8@@QEAAXXZ
?MarkAsUndetectable@ObjectTemplate@v8@@QEAAXXZ
?max_old_generation_size_in_bytes@ResourceConstraints@v8@@QEBA_KXZ
?max_old_space_size@ResourceConstraints@v8@@QEBA_KXZ
?max_samples@CpuProfilingOptions@v8@@QEBAIXZ
?max_semi_space_size_in_kb@ResourceConstraints@v8@@QEBA_KXZ
?max_size@?$vector@UCpuProfileDeoptFrame@v8@@V?$allocator@UCpuProfileDeoptFrame@v8@@@__1@std@@@__1@std@@QEBA_KXZ
?max_size@?$vector@UCpuProfileDeoptInfo@v8@@V?$allocator@UCpuProfileDeoptInfo@v8@@@__1@std@@@__1@std@@QEBA_KXZ
?max_young_generation_size_in_bytes@ResourceConstraints@v8@@QEBA_KXZ
?max_zone_pool_size@ResourceConstraints@v8@@QEBA_KXZ
?maxAsyncCallStackDepthChanged@V8InspectorClient@v8_inspector@@UEAAXH@Z
?MeasureMemory@Isolate@v8@@QEAA?AV?$MaybeLocal@VPromise@v8@@@2@V?$Local@VContext@v8@@@2@W4MeasureMemoryMode@2@@Z
?memoryInfo@V8InspectorClient@v8_inspector@@UEAA?AV?$MaybeLocal@VValue@v8@@@v8@@PEAVIsolate@4@V?$Local@VContext@v8@@@4@@Z
?MemoryPressureNotification@Isolate@v8@@QEAAXW4MemoryPressureLevel@2@@Z
?Message@TryCatch@v8@@QEBA?AV?$Local@VMessage@v8@@@2@XZ
?minor_@Version@internal@v8@@0HA
?mode@CpuProfilingOptions@v8@@QEBA?AW4CpuProfilingMode@2@XZ
?ModuleIdsGetter@NativeModuleEnv@native_module@node@@CAXV?$Local@VName@v8@@@v8@@AEBV?$PropertyCallbackInfo@VValue@v8@@@5@@Z
?MoveEntry@OSROptimizedCodeCache@internal@v8@@AEAAXHHPEAVIsolate@23@@Z
?MoveGlobalReference@V8@v8@@CAXPEAPEA_K0@Z
?MoveTracedGlobalReference@V8@v8@@CAXPEAPEA_K0@Z
?muteMetrics@V8InspectorClient@v8_inspector@@UEAAXH@Z
?name@Extension@v8@@QEBAPEBDXZ
?Name@Private@v8@@QEBA?AV?$Local@VValue@v8@@@2@XZ
?Name@Symbol@v8@@QEBA?AV?$Local@VValue@v8@@@2@XZ
?NeedsTrimming@OSROptimizedCodeCache@internal@v8@@CA_NHH@Z
?New@AccessorSignature@v8@@SA?AV?$Local@VAccessorSignature@v8@@@2@PEAVIsolate@2@V?$Local@VFunctionTemplate@v8@@@2@@Z
?New@Array@v8@@SA?AV?$Local@VArray@v8@@@2@PEAVIsolate@2@H@Z
?New@Array@v8@@SA?AV?$Local@VArray@v8@@@2@PEAVIsolate@2@PEAV?$Local@VValue@v8@@@2@_K@Z
?New@ArrayBuffer@v8@@SA?AV?$Local@VArrayBuffer@v8@@@2@PEAVIsolate@2@_K@Z
?New@ArrayBuffer@v8@@SA?AV?$Local@VArrayBuffer@v8@@@2@PEAVIsolate@2@PEAX_KW4ArrayBufferCreationMode@2@@Z
?New@ArrayBuffer@v8@@SA?AV?$Local@VArrayBuffer@v8@@@2@PEAVIsolate@2@V?$shared_ptr@VBackingStore@v8@@@__1@std@@@Z
?New@BigInt64Array@v8@@SA?AV?$Local@VBigInt64Array@v8@@@2@V?$Local@VArrayBuffer@v8@@@2@_K1@Z
?New@BigInt64Array@v8@@SA?AV?$Local@VBigInt64Array@v8@@@2@V?$Local@VSharedArrayBuffer@v8@@@2@_K1@Z
?New@BigInt@v8@@SA?AV?$Local@VBigInt@v8@@@2@PEAVIsolate@2@_J@Z
?New@BigIntObject@v8@@SA?AV?$Local@VValue@v8@@@2@PEAVIsolate@2@_J@Z
?New@BigUint64Array@v8@@SA?AV?$Local@VBigUint64Array@v8@@@2@V?$Local@VArrayBuffer@v8@@@2@_K1@Z
?New@BigUint64Array@v8@@SA?AV?$Local@VBigUint64Array@v8@@@2@V?$Local@VSharedArrayBuffer@v8@@@2@_K1@Z
?New@Boolean@v8@@SA?AV?$Local@VBoolean@v8@@@2@PEAVIsolate@2@_N@Z
?New@BooleanObject@v8@@SA?AV?$Local@VValue@v8@@@2@PEAVIsolate@2@_N@Z
?New@Buffer@node@@YA?AV?$MaybeLocal@VObject@v8@@@v8@@PEAVIsolate@4@_K@Z
?New@Buffer@node@@YA?AV?$MaybeLocal@VObject@v8@@@v8@@PEAVIsolate@4@PEAD_K@Z
?New@Buffer@node@@YA?AV?$MaybeLocal@VObject@v8@@@v8@@PEAVIsolate@4@PEAD_KP6AX1PEAX@Z3@Z
?New@Buffer@node@@YA?AV?$MaybeLocal@VObject@v8@@@v8@@PEAVIsolate@4@V?$Local@VString@v8@@@4@W4encoding@2@@Z
?New@Context@v8@@SA?AV?$Local@VContext@v8@@@2@PEAVIsolate@2@PEAVExtensionConfiguration@2@V?$MaybeLocal@VObjectTemplate@v8@@@2@V?$MaybeLocal@VValue@v8@@@2@UDeserializeInternalFieldsCallback@2@PEAVMicrotaskQueue@2@@Z
?New@CpuProfiler@v8@@SAPEAV12@PEAVIsolate@2@W4CpuProfilingNamingMode@2@W4CpuProfilingLoggingMode@2@@Z
?New@DataView@v8@@SA?AV?$Local@VDataView@v8@@@2@V?$Local@VArrayBuffer@v8@@@2@_K1@Z
?New@DataView@v8@@SA?AV?$Local@VDataView@v8@@@2@V?$Local@VSharedArrayBuffer@v8@@@2@_K1@Z
?New@Date@v8@@SA?AV?$MaybeLocal@VValue@v8@@@2@V?$Local@VContext@v8@@@2@N@Z
?New@External@v8@@SA?AV?$Local@VExternal@v8@@@2@PEAVIsolate@2@PEAX@Z
?New@Float32Array@v8@@SA?AV?$Local@VFloat32Array@v8@@@2@V?$Local@VArrayBuffer@v8@@@2@_K1@Z
?New@Float32Array@v8@@SA?AV?$Local@VFloat32Array@v8@@@2@V?$Local@VSharedArrayBuffer@v8@@@2@_K1@Z
?New@Float64Array@v8@@SA?AV?$Local@VFloat64Array@v8@@@2@V?$Local@VArrayBuffer@v8@@@2@_K1@Z
?New@Float64Array@v8@@SA?AV?$Local@VFloat64Array@v8@@@2@V?$Local@VSharedArrayBuffer@v8@@@2@_K1@Z
?New@Function@v8@@SA?AV?$MaybeLocal@VFunction@v8@@@2@V?$Local@VContext@v8@@@2@P6AXAEBV?$FunctionCallbackInfo@VValue@v8@@@2@@ZV?$Local@VValue@v8@@@2@HW4ConstructorBehavior@2@W4SideEffectType@2@@Z
?New@FunctionTemplate@v8@@SA?AV?$Local@VFunctionTemplate@v8@@@2@PEAVIsolate@2@P6AXAEBV?$FunctionCallbackInfo@VValue@v8@@@2@@ZV?$Local@VValue@v8@@@2@V?$Local@VSignature@v8@@@2@HW4ConstructorBehavior@2@W4SideEffectType@2@@Z
?New@Int16Array@v8@@SA?AV?$Local@VInt16Array@v8@@@2@V?$Local@VArrayBuffer@v8@@@2@_K1@Z
?New@Int16Array@v8@@SA?AV?$Local@VInt16Array@v8@@@2@V?$Local@VSharedArrayBuffer@v8@@@2@_K1@Z
?New@Int32Array@v8@@SA?AV?$Local@VInt32Array@v8@@@2@V?$Local@VArrayBuffer@v8@@@2@_K1@Z
?New@Int32Array@v8@@SA?AV?$Local@VInt32Array@v8@@@2@V?$Local@VSharedArrayBuffer@v8@@@2@_K1@Z
?New@Int8Array@v8@@SA?AV?$Local@VInt8Array@v8@@@2@V?$Local@VArrayBuffer@v8@@@2@_K1@Z
?New@Int8Array@v8@@SA?AV?$Local@VInt8Array@v8@@@2@V?$Local@VSharedArrayBuffer@v8@@@2@_K1@Z
?New@Integer@v8@@SA?AV?$Local@VInteger@v8@@@2@PEAVIsolate@2@H@Z
?New@Isolate@v8@@SAPEAV12@AEBUCreateParams@12@@Z
?New@Map@v8@@SA?AV?$Local@VMap@v8@@@2@PEAVIsolate@2@@Z
?New@MicrotaskQueue@v8@@SA?AV?$unique_ptr@VMicrotaskQueue@v8@@U?$default_delete@VMicrotaskQueue@v8@@@__1@std@@@__1@std@@PEAVIsolate@2@W4MicrotasksPolicy@2@@Z
?New@Number@v8@@SA?AV?$Local@VNumber@v8@@@2@PEAVIsolate@2@N@Z
?New@NumberObject@v8@@SA?AV?$Local@VValue@v8@@@2@PEAVIsolate@2@N@Z
?New@Object@v8@@SA?AV?$Local@VObject@v8@@@2@PEAVIsolate@2@@Z
?New@Object@v8@@SA?AV?$Local@VObject@v8@@@2@PEAVIsolate@2@V?$Local@VValue@v8@@@2@PEAV?$Local@VName@v8@@@2@PEAV52@_K@Z
?New@ObjectTemplate@v8@@CA?AV?$Local@VObjectTemplate@v8@@@2@PEAVIsolate@internal@2@V?$Local@VFunctionTemplate@v8@@@2@@Z
?New@ObjectTemplate@v8@@SA?AV?$Local@VObjectTemplate@v8@@@2@PEAVIsolate@2@V?$Local@VFunctionTemplate@v8@@@2@@Z
?New@PrimitiveArray@v8@@SA?AV?$Local@VPrimitiveArray@v8@@@2@PEAVIsolate@2@H@Z
?New@Private@v8@@SA?AV?$Local@VPrivate@v8@@@2@PEAVIsolate@2@V?$Local@VString@v8@@@2@@Z
?New@Proxy@v8@@SA?AV?$MaybeLocal@VProxy@v8@@@2@V?$Local@VContext@v8@@@2@V?$Local@VObject@v8@@@2@1@Z
?New@RegExp@v8@@SA?AV?$MaybeLocal@VRegExp@v8@@@2@V?$Local@VContext@v8@@@2@V?$Local@VString@v8@@@2@W4Flags@12@@Z
?New@Resolver@Promise@v8@@SA?AV?$MaybeLocal@VResolver@Promise@v8@@@3@V?$Local@VContext@v8@@@3@@Z
?New@Set@v8@@SA?AV?$Local@VSet@v8@@@2@PEAVIsolate@2@@Z
?New@SharedArrayBuffer@v8@@SA?AV?$Local@VSharedArrayBuffer@v8@@@2@PEAVIsolate@2@_K@Z
?New@SharedArrayBuffer@v8@@SA?AV?$Local@VSharedArrayBuffer@v8@@@2@PEAVIsolate@2@AEBVContents@12@W4ArrayBufferCreationMode@2@@Z
?New@SharedArrayBuffer@v8@@SA?AV?$Local@VSharedArrayBuffer@v8@@@2@PEAVIsolate@2@PEAX_KW4ArrayBufferCreationMode@2@@Z
?New@SharedArrayBuffer@v8@@SA?AV?$Local@VSharedArrayBuffer@v8@@@2@PEAVIsolate@2@V?$shared_ptr@VBackingStore@v8@@@__1@std@@@Z
?New@Signature@v8@@SA?AV?$Local@VSignature@v8@@@2@PEAVIsolate@2@V?$Local@VFunctionTemplate@v8@@@2@@Z
?New@StringObject@v8@@SA?AV?$Local@VValue@v8@@@2@PEAVIsolate@2@V?$Local@VString@v8@@@2@@Z
?New@StringObject@v8@@SA?AV?$Local@VValue@v8@@@2@V?$Local@VString@v8@@@2@@Z
?New@Symbol@v8@@SA?AV?$Local@VSymbol@v8@@@2@PEAVIsolate@2@V?$Local@VString@v8@@@2@@Z
?New@SymbolObject@v8@@SA?AV?$Local@VValue@v8@@@2@PEAVIsolate@2@V?$Local@VSymbol@v8@@@2@@Z
?New@Uint16Array@v8@@SA?AV?$Local@VUint16Array@v8@@@2@V?$Local@VArrayBuffer@v8@@@2@_K1@Z
?New@Uint16Array@v8@@SA?AV?$Local@VUint16Array@v8@@@2@V?$Local@VSharedArrayBuffer@v8@@@2@_K1@Z
?New@Uint32Array@v8@@SA?AV?$Local@VUint32Array@v8@@@2@V?$Local@VArrayBuffer@v8@@@2@_K1@Z
?New@Uint32Array@v8@@SA?AV?$Local@VUint32Array@v8@@@2@V?$Local@VSharedArrayBuffer@v8@@@2@_K1@Z
?New@Uint8Array@v8@@SA?AV?$Local@VUint8Array@v8@@@2@V?$Local@VArrayBuffer@v8@@@2@_K1@Z
?New@Uint8Array@v8@@SA?AV?$Local@VUint8Array@v8@@@2@V?$Local@VSharedArrayBuffer@v8@@@2@_K1@Z
?New@Uint8ClampedArray@v8@@SA?AV?$Local@VUint8ClampedArray@v8@@@2@V?$Local@VArrayBuffer@v8@@@2@_K1@Z
?New@Uint8ClampedArray@v8@@SA?AV?$Local@VUint8ClampedArray@v8@@@2@V?$Local@VSharedArrayBuffer@v8@@@2@_K1@Z
?NewBackingStore@ArrayBuffer@v8@@SA?AV?$unique_ptr@VBackingStore@v8@@U?$default_delete@VBackingStore@v8@@@__1@std@@@__1@std@@PEAVIsolate@2@_K@Z
?NewBackingStore@ArrayBuffer@v8@@SA?AV?$unique_ptr@VBackingStore@v8@@U?$default_delete@VBackingStore@v8@@@__1@std@@@__1@std@@PEAX_KP6AX010@Z0@Z
?NewBackingStore@SharedArrayBuffer@v8@@SA?AV?$unique_ptr@VBackingStore@v8@@U?$default_delete@VBackingStore@v8@@@__1@std@@@__1@std@@PEAVIsolate@2@_K@Z
?NewBackingStore@SharedArrayBuffer@v8@@SA?AV?$unique_ptr@VBackingStore@v8@@U?$default_delete@VBackingStore@v8@@@__1@std@@@__1@std@@PEAX_KP6AX010@Z0@Z
?NewContext@node@@YA?AV?$Local@VContext@v8@@@v8@@PEAVIsolate@3@V?$Local@VObjectTemplate@v8@@@3@@Z
?NewDefaultAllocator@Allocator@ArrayBuffer@v8@@SAPEAV123@XZ
?NewExternalOneByte@String@v8@@SA?AV?$MaybeLocal@VString@v8@@@2@PEAVIsolate@2@PEAVExternalOneByteStringResource@12@@Z
?NewExternalTwoByte@String@v8@@SA?AV?$MaybeLocal@VString@v8@@@2@PEAVIsolate@2@PEAVExternalStringResource@12@@Z
?NewFromOneByte@String@v8@@SA?AV?$MaybeLocal@VString@v8@@@2@PEAVIsolate@2@PEBEW4NewStringType@2@H@Z
?NewFromTwoByte@String@v8@@SA?AV?$MaybeLocal@VString@v8@@@2@PEAVIsolate@2@PEBGW4NewStringType@2@H@Z
?NewFromUnsigned@BigInt@v8@@SA?AV?$Local@VBigInt@v8@@@2@PEAVIsolate@2@_K@Z
?NewFromUnsigned@Integer@v8@@SA?AV?$Local@VInteger@v8@@@2@PEAVIsolate@2@I@Z
?NewFromUtf8@String@v8@@SA?AV?$MaybeLocal@VString@v8@@@2@PEAVIsolate@2@PEBDW4NewStringType@2@H@Z
?NewFromWords@BigInt@v8@@SA?AV?$MaybeLocal@VBigInt@v8@@@2@V?$Local@VContext@v8@@@2@HHPEB_K@Z
?NewInstance@Function@v8@@QEBA?AV?$MaybeLocal@VObject@v8@@@2@V?$Local@VContext@v8@@@2@@Z
?NewInstance@Function@v8@@QEBA?AV?$MaybeLocal@VObject@v8@@@2@V?$Local@VContext@v8@@@2@HQEAV?$Local@VValue@v8@@@2@@Z
?NewInstance@ObjectTemplate@v8@@QEAA?AV?$MaybeLocal@VObject@v8@@@2@V?$Local@VContext@v8@@@2@@Z
?NewInstanceWithSideEffectType@Function@v8@@QEBA?AV?$MaybeLocal@VObject@v8@@@2@V?$Local@VContext@v8@@@2@HQEAV?$Local@VValue@v8@@@2@W4SideEffectType@2@@Z
?NewIsolate@node@@YAPEAVIsolate@v8@@PEAVArrayBufferAllocator@1@PEAUuv_loop_s@@@Z
?NewIsolate@node@@YAPEAVIsolate@v8@@PEAVArrayBufferAllocator@1@PEAUuv_loop_s@@PEAVMultiIsolatePlatform@1@@Z
?NewRemoteContext@Context@v8@@SA?AV?$MaybeLocal@VObject@v8@@@2@PEAVIsolate@2@V?$Local@VObjectTemplate@v8@@@2@V?$MaybeLocal@VValue@v8@@@2@@Z
?NewRemoteInstance@FunctionTemplate@v8@@QEAA?AV?$MaybeLocal@VObject@v8@@@2@XZ
?NewWithBacktrackLimit@RegExp@v8@@SA?AV?$MaybeLocal@VRegExp@v8@@@2@V?$Local@VContext@v8@@@2@V?$Local@VString@v8@@@2@W4Flags@12@I@Z
?NewWithCache@FunctionTemplate@v8@@SA?AV?$Local@VFunctionTemplate@v8@@@2@PEAVIsolate@2@P6AXAEBV?$FunctionCallbackInfo@VValue@v8@@@2@@ZV?$Local@VPrivate@v8@@@2@V?$Local@VValue@v8@@@2@V?$Local@VSignature@v8@@@2@HW4SideEffectType@2@@Z
?number_of_detached_contexts@HeapStatistics@v8@@QEAA_KXZ
?number_of_native_contexts@HeapStatistics@v8@@QEAA_KXZ
?NumberOfHandles@HandleScope@v8@@SAHPEAVIsolate@2@@Z
?NumberOfHeapSpaces@Isolate@v8@@QEAA_KXZ
?NumberOfPhantomHandleResetsSinceLastCall@Isolate@v8@@QEAA_KXZ
?NumberOfTrackedHeapObjectTypes@Isolate@v8@@QEAA_KXZ
?NumberValue@Value@v8@@QEBA?AV?$Maybe@N@2@V?$Local@VContext@v8@@@2@@Z
?NumberValue@Value@v8@@QEBANXZ
?object_count@HeapObjectStatistics@v8@@QEAA_KXZ
?object_size@HeapObjectStatistics@v8@@QEAA_KXZ
?object_sub_type@HeapObjectStatistics@v8@@QEAAPEBDXZ
?object_type@HeapObjectStatistics@v8@@QEAAPEBDXZ
?ObjectProtoToString@Object@v8@@QEAA?AV?$MaybeLocal@VString@v8@@@2@V?$Local@VContext@v8@@@2@@Z
?OnBytesReceived@WasmModuleObjectBuilderStreaming@v8@@QEAAXPEBE_K@Z
?OnBytesReceived@WasmStreaming@v8@@QEAAXPEBE_K@Z
?OOM@ReasonEnum@Paused@API@Debugger@protocol@v8_inspector@@3PEBDEB
?options@Agent@inspector@node@@QEAAAEBVDebugOptions@3@XZ
?Other@ReasonEnum@Paused@API@Debugger@protocol@v8_inspector@@3PEBDEB
?Parse@?$OptionsParser@VDebugOptions@node@@@options_parser@node@@QEBAXQEAV?$vector@V?$basic_string@DU?$char_traits@D@__1@std@@V?$allocator@D@23@@__1@std@@V?$allocator@V?$basic_string@DU?$char_traits@D@__1@std@@V?$allocator@D@23@@__1@std@@@23@@__1@std@@00QEAVDebugOptions@3@W4OptionEnvvarSettings@23@0@Z
?Parse@JSON@v8@@SA?AV?$MaybeLocal@VValue@v8@@@2@V?$Local@VContext@v8@@@2@V?$Local@VString@v8@@@2@@Z
?ParseEncoding@node@@YA?AW4encoding@1@PEAVIsolate@v8@@V?$Local@VValue@v8@@@4@W421@@Z
?patch_@Version@internal@v8@@0HA
?PauseOnNextJavascriptStatement@Agent@inspector@node@@QEAAXAEBV?$basic_string@DU?$char_traits@D@__1@std@@V?$allocator@D@23@@__1@std@@@Z
?PCIsInV8@Unwinder@v8@@SA_NAEBUUnwindState@2@PEAX@Z
?peak_malloced_memory@HeapStatistics@v8@@QEAA_KXZ
?PerformCheckpoint@MicrotasksScope@v8@@SAXPEAVIsolate@2@@Z
?physical_space_size@HeapSpaceStatistics@v8@@QEAA_KXZ
?pop_back@?$vector@UCpuProfileDeoptFrame@v8@@V?$allocator@UCpuProfileDeoptFrame@v8@@@__1@std@@@__1@std@@QEAAXXZ
?pop_back@?$vector@UCpuProfileDeoptInfo@v8@@V?$allocator@UCpuProfileDeoptInfo@v8@@@__1@std@@@__1@std@@QEAAXXZ
?PrepareStressRun@Testing@v8@@SAXH@Z
?PreviewEntries@Object@v8@@QEAA?AV?$MaybeLocal@VArray@v8@@@2@PEA_N@Z
?print@TickSample@internal@v8@@QEBAXXZ
?PrintCurrentStackTrace@Message@v8@@SAXPEAVIsolate@2@PEAU_iobuf@@@Z
?PromiseRejection@ReasonEnum@Paused@API@Debugger@protocol@v8_inspector@@3PEBDEB
?PrototypeTemplate@FunctionTemplate@v8@@QEAA?AV?$Local@VObjectTemplate@v8@@@2@XZ
?push_back@?$vector@UCpuProfileDeoptFrame@v8@@V?$allocator@UCpuProfileDeoptFrame@v8@@@__1@std@@@__1@std@@QEAAX$$QEAUCpuProfileDeoptFrame@v8@@@Z
?push_back@?$vector@UCpuProfileDeoptFrame@v8@@V?$allocator@UCpuProfileDeoptFrame@v8@@@__1@std@@@__1@std@@QEAAXAEBUCpuProfileDeoptFrame@v8@@@Z
?push_back@?$vector@UCpuProfileDeoptInfo@v8@@V?$allocator@UCpuProfileDeoptInfo@v8@@@__1@std@@@__1@std@@QEAAX$$QEAUCpuProfileDeoptInfo@v8@@@Z
?push_back@?$vector@UCpuProfileDeoptInfo@v8@@V?$allocator@UCpuProfileDeoptInfo@v8@@@__1@std@@@__1@std@@QEAAXAEBUCpuProfileDeoptInfo@v8@@@Z
?QuickIsNull@Value@v8@@AEBA_NXZ
?QuickIsNullOrUndefined@Value@v8@@AEBA_NXZ
?QuickIsString@Value@v8@@AEBA_NXZ
?QuickIsUndefined@Value@v8@@AEBA_NXZ
?quitMessageLoopOnPause@V8InspectorClient@v8_inspector@@UEAAXXZ
?RangeError@Exception@v8@@SA?AV?$Local@VValue@v8@@@2@V?$Local@VString@v8@@@2@@Z
?raw_filter_context@CpuProfilingOptions@v8@@AEBAPEAXXZ
?rbegin@?$vector@UCpuProfileDeoptFrame@v8@@V?$allocator@UCpuProfileDeoptFrame@v8@@@__1@std@@@__1@std@@QEAA?AV?$reverse_iterator@V?$__wrap_iter@PEAUCpuProfileDeoptFrame@v8@@@__1@std@@@23@XZ
?rbegin@?$vector@UCpuProfileDeoptFrame@v8@@V?$allocator@UCpuProfileDeoptFrame@v8@@@__1@std@@@__1@std@@QEBA?AV?$reverse_iterator@V?$__wrap_iter@PEBUCpuProfileDeoptFrame@v8@@@__1@std@@@23@XZ
?rbegin@?$vector@UCpuProfileDeoptInfo@v8@@V?$allocator@UCpuProfileDeoptInfo@v8@@@__1@std@@@__1@std@@QEAA?AV?$reverse_iterator@V?$__wrap_iter@PEAUCpuProfileDeoptInfo@v8@@@__1@std@@@23@XZ
?rbegin@?$vector@UCpuProfileDeoptInfo@v8@@V?$allocator@UCpuProfileDeoptInfo@v8@@@__1@std@@@__1@std@@QEBA?AV?$reverse_iterator@V?$__wrap_iter@PEBUCpuProfileDeoptInfo@v8@@@__1@std@@@23@XZ
?read_only_space_physical_size@SharedMemoryStatistics@v8@@QEAA_KXZ
?read_only_space_size@SharedMemoryStatistics@v8@@QEAA_KXZ
?read_only_space_used_size@SharedMemoryStatistics@v8@@QEAA_KXZ
?ReadDouble@ValueDeserializer@v8@@QEAA_NPEAN@Z
?ReadHeader@ValueDeserializer@v8@@QEAA?AV?$Maybe@_N@2@V?$Local@VContext@v8@@@2@@Z
?ReadHostObject@Delegate@ValueDeserializer@v8@@UEAA?AV?$MaybeLocal@VObject@v8@@@3@PEAVIsolate@3@@Z
?ReadOnlyPrototype@FunctionTemplate@v8@@QEAAXXZ
?ReadRawBytes@ValueDeserializer@v8@@QEAA_N_KPEAPEBX@Z
?ReadUint32@ValueDeserializer@v8@@QEAA_NPEAI@Z
?ReadUint64@ValueDeserializer@v8@@QEAA_NPEA_K@Z
?ReadValue@ValueDeserializer@v8@@QEAA?AV?$MaybeLocal@VValue@v8@@@2@V?$Local@VContext@v8@@@2@@Z
?Realloc@Allocator@ArrayBuffer@v8@@UEAAPEAXPEAX_K@Z
?ReallocateBufferMemory@Delegate@ValueSerializer@v8@@UEAAPEAXPEAX_KPEA_K@Z
?RecordResult@NativeModuleEnv@native_module@node@@CAXPEBDW4Result@NativeModuleLoader@23@PEAVEnvironment@3@@Z
?ReferenceError@Exception@v8@@SA?AV?$Local@VValue@v8@@@2@V?$Local@VString@v8@@@2@@Z
?RegisterAsyncHook@Agent@inspector@node@@QEAAXPEAVIsolate@v8@@V?$Local@VFunction@v8@@@5@1@Z
?RegisterEmbedderReference@EmbedderHeapTracer@v8@@QEAAXAEBV?$TracedReferenceBase@VData@v8@@@2@@Z
?RegisterEmbedderReference@EmbedderHeapTracer@v8@@QEAAXAEBV?$TracedReferenceBase@VValue@v8@@@2@@Z
?RegisterExtension@v8@@YAXV?$unique_ptr@VExtension@v8@@U?$default_delete@VExtension@v8@@@__1@std@@@__1@std@@@Z
?Reject@Resolver@Promise@v8@@QEAA?AV?$Maybe@_N@3@V?$Local@VContext@v8@@@3@V?$Local@VValue@v8@@@3@@Z
?Release@ValueSerializer@v8@@QEAA?AU?$pair@PEAE_K@__1@std@@XZ
?RemoveBeforeCallEnteredCallback@Isolate@v8@@QEAAXP6AXPEAV12@@Z@Z
?RemoveBuildEmbedderGraphCallback@HeapProfiler@v8@@QEAAXP6AXPEAVIsolate@2@PEAVEmbedderGraph@2@PEAX@Z2@Z
?RemoveCallCompletedCallback@Isolate@v8@@QEAAXP6AXPEAV12@@Z@Z
?RemoveEnvironmentCleanupHook@node@@YAXPEAVIsolate@v8@@P6AXPEAX@Z1@Z
?RemoveGCEpilogueCallback@Isolate@v8@@QEAAXP6AXPEAV12@W4GCType@2@W4GCCallbackFlags@2@@Z@Z
?RemoveGCEpilogueCallback@Isolate@v8@@QEAAXP6AXPEAV12@W4GCType@2@W4GCCallbackFlags@2@PEAX@Z3@Z
?RemoveGCPrologueCallback@Isolate@v8@@QEAAXP6AXPEAV12@W4GCType@2@W4GCCallbackFlags@2@@Z@Z
?RemoveGCPrologueCallback@Isolate@v8@@QEAAXP6AXPEAV12@W4GCType@2@W4GCCallbackFlags@2@PEAX@Z3@Z
?RemoveMessageListeners@Isolate@v8@@QEAAXP6AXV?$Local@VMessage@v8@@@2@V?$Local@VValue@v8@@@2@@Z@Z
?RemoveMicrotasksCompletedCallback@Isolate@v8@@QEAAXP6AXPEAV12@@Z@Z
?RemoveMicrotasksCompletedCallback@Isolate@v8@@QEAAXP6AXPEAV12@PEAX@Z1@Z
?RemoveNearHeapLimitCallback@Isolate@v8@@QEAAXP6A_KPEAX_K1@Z1@Z
?RemovePrototype@FunctionTemplate@v8@@QEAAXXZ
?rend@?$vector@UCpuProfileDeoptFrame@v8@@V?$allocator@UCpuProfileDeoptFrame@v8@@@__1@std@@@__1@std@@QEAA?AV?$reverse_iterator@V?$__wrap_iter@PEAUCpuProfileDeoptFrame@v8@@@__1@std@@@23@XZ
?rend@?$vector@UCpuProfileDeoptFrame@v8@@V?$allocator@UCpuProfileDeoptFrame@v8@@@__1@std@@@__1@std@@QEBA?AV?$reverse_iterator@V?$__wrap_iter@PEBUCpuProfileDeoptFrame@v8@@@__1@std@@@23@XZ
?rend@?$vector@UCpuProfileDeoptInfo@v8@@V?$allocator@UCpuProfileDeoptInfo@v8@@@__1@std@@@__1@std@@QEAA?AV?$reverse_iterator@V?$__wrap_iter@PEAUCpuProfileDeoptInfo@v8@@@__1@std@@@23@XZ
?rend@?$vector@UCpuProfileDeoptInfo@v8@@V?$allocator@UCpuProfileDeoptInfo@v8@@@__1@std@@@__1@std@@QEBA?AV?$reverse_iterator@V?$__wrap_iter@PEBUCpuProfileDeoptInfo@v8@@@__1@std@@@23@XZ
?ReportExternalAllocationLimitReached@Isolate@v8@@AEAAXXZ
?ReportUncaughtException@Agent@inspector@node@@QEAAXV?$Local@VValue@v8@@@v8@@V?$Local@VMessage@v8@@@5@@Z
?RequestGarbageCollectionForTesting@Isolate@v8@@QEAAXW4GarbageCollectionType@12@@Z
?RequestInterrupt@Isolate@v8@@QEAAXP6AXPEAV12@PEAX@Z1@Z
?RequestIoThreadStart@Agent@inspector@node@@QEAAXXZ
?reserve@?$vector@UCpuProfileDeoptFrame@v8@@V?$allocator@UCpuProfileDeoptFrame@v8@@@__1@std@@@__1@std@@QEAAX_K@Z
?reserve@?$vector@UCpuProfileDeoptInfo@v8@@V?$allocator@UCpuProfileDeoptInfo@v8@@@__1@std@@@__1@std@@QEAAX_K@Z
?Reset@TryCatch@v8@@QEAAXXZ
?ResetHandleInNonTracingGC@EmbedderHeapTracer@v8@@UEAAXAEBV?$TracedGlobal@VValue@v8@@@2@@Z
?ResetHandleInNonTracingGC@EmbedderHeapTracer@v8@@UEAAXAEBV?$TracedReference@VValue@v8@@@2@@Z
?ResetInternal@TryCatch@v8@@AEAAXXZ
?ResetToBookmark@ExternalSourceStream@ScriptCompiler@v8@@UEAAXXZ
?resize@?$vector@UCpuProfileDeoptFrame@v8@@V?$allocator@UCpuProfileDeoptFrame@v8@@@__1@std@@@__1@std@@QEAAX_K@Z
?resize@?$vector@UCpuProfileDeoptFrame@v8@@V?$allocator@UCpuProfileDeoptFrame@v8@@@__1@std@@@__1@std@@QEAAX_KAEBUCpuProfileDeoptFrame@v8@@@Z
?resize@?$vector@UCpuProfileDeoptInfo@v8@@V?$allocator@UCpuProfileDeoptInfo@v8@@@__1@std@@@__1@std@@QEAAX_K@Z
?resize@?$vector@UCpuProfileDeoptInfo@v8@@V?$allocator@UCpuProfileDeoptInfo@v8@@@__1@std@@@__1@std@@QEAAX_KAEBUCpuProfileDeoptInfo@v8@@@Z
?Resolve@Resolver@Promise@v8@@QEAA?AV?$Maybe@_N@3@V?$Local@VContext@v8@@@3@V?$Local@VValue@v8@@@3@@Z
?resourceNameToUrl@V8InspectorClient@v8_inspector@@UEAA?AV?$unique_ptr@VStringBuffer@v8_inspector@@U?$default_delete@VStringBuffer@v8_inspector@@@__1@std@@@__1@std@@AEBVStringView@2@@Z
?RestoreOriginalHeapLimit@Isolate@v8@@QEAAXXZ
?Result@Promise@v8@@QEAA?AV?$Local@VValue@v8@@@2@XZ
?ReThrow@TryCatch@v8@@QEAA?AV?$Local@VValue@v8@@@2@XZ
?Revoke@Proxy@v8@@QEAAXXZ
?Run@Script@v8@@QEAA?AV?$MaybeLocal@VValue@v8@@@2@V?$Local@VContext@v8@@@2@@Z
?Run@ScriptStreamingTask@ScriptCompiler@v8@@QEAAXXZ
?RunAtExit@node@@YAXPEAVEnvironment@1@@Z
?runIfWaitingForDebugger@V8InspectorClient@v8_inspector@@UEAAXH@Z
?runMessageLoopOnPause@V8InspectorClient@v8_inspector@@UEAAXH@Z
?RunMicrotasks@Isolate@v8@@QEAAXXZ
?SameValue@Value@v8@@QEBA_NV?$Local@VValue@v8@@@2@@Z
?sampling_interval_us@CpuProfilingOptions@v8@@QEBAHXZ
?ScriptId@Function@v8@@QEBAHXZ
?Serialize@CompiledWasmModule@v8@@QEAA?AUOwnedBuffer@2@XZ
?Serialize@HeapSnapshot@v8@@QEBAXPEAVOutputStream@2@W4SerializationFormat@12@@Z
?Set@Map@v8@@QEAA?AV?$MaybeLocal@VMap@v8@@@2@V?$Local@VContext@v8@@@2@V?$Local@VValue@v8@@@2@1@Z
?Set@Object@v8@@QEAA?AV?$Maybe@_N@2@V?$Local@VContext@v8@@@2@IV?$Local@VValue@v8@@@2@@Z
?Set@Object@v8@@QEAA?AV?$Maybe@_N@2@V?$Local@VContext@v8@@@2@V?$Local@VValue@v8@@@2@1@Z
?Set@PrimitiveArray@v8@@QEAAXHV?$Local@VPrimitive@v8@@@2@@Z
?Set@PrimitiveArray@v8@@QEAAXPEAVIsolate@2@HV?$Local@VPrimitive@v8@@@2@@Z
?set@PropertyDescriptor@v8@@QEBA?AV?$Local@VValue@v8@@@2@XZ
?Set@Template@v8@@QEAAXPEAVIsolate@2@PEBDV?$Local@VData@v8@@@2@@Z
?Set@Template@v8@@QEAAXV?$Local@VName@v8@@@2@V?$Local@VData@v8@@@2@W4PropertyAttribute@2@@Z
?set_auto_enable@Extension@v8@@QEAAX_N@Z
?set_code_range_size@ResourceConstraints@v8@@QEAAX_K@Z
?set_code_range_size_in_bytes@ResourceConstraints@v8@@QEAAX_K@Z
?set_configurable@PropertyDescriptor@v8@@QEAAX_N@Z
?set_enumerable@PropertyDescriptor@v8@@QEAAX_N@Z
?set_initial_old_generation_size_in_bytes@ResourceConstraints@v8@@QEAAX_K@Z
?set_initial_young_generation_size_in_bytes@ResourceConstraints@v8@@QEAAX_K@Z
?set_max_old_generation_size_in_bytes@ResourceConstraints@v8@@QEAAX_K@Z
?set_max_old_space_size@ResourceConstraints@v8@@QEAAX_K@Z
?set_max_semi_space_size_in_kb@ResourceConstraints@v8@@QEAAX_K@Z
?set_max_young_generation_size_in_bytes@ResourceConstraints@v8@@QEAAX_K@Z
?set_max_zone_pool_size@ResourceConstraints@v8@@QEAAX_K@Z
?set_stack_limit@ResourceConstraints@v8@@QEAAXPEAI@Z
?SetAbortOnUncaughtExceptionCallback@Isolate@v8@@QEAAXP6A_NPEAV12@@Z@Z
?SetAbortScriptExecution@Context@v8@@QEAAXP6AXPEAVIsolate@2@V?$Local@VContext@v8@@@2@@Z@Z
?SetAcceptAnyReceiver@FunctionTemplate@v8@@QEAAX_N@Z
?SetAccessCheckCallback@ObjectTemplate@v8@@QEAAXP6A_NV?$Local@VContext@v8@@@2@V?$Local@VObject@v8@@@2@V?$Local@VValue@v8@@@2@@Z2@Z
?SetAccessCheckCallbackAndHandler@ObjectTemplate@v8@@QEAAXP6A_NV?$Local@VContext@v8@@@2@V?$Local@VObject@v8@@@2@V?$Local@VValue@v8@@@2@@ZAEBUNamedPropertyHandlerConfiguration@2@AEBUIndexedPropertyHandlerConfiguration@2@2@Z
?SetAccessor@Object@v8@@QEAA?AV?$Maybe@_N@2@V?$Local@VContext@v8@@@2@V?$Local@VName@v8@@@2@P6AX1AEBV?$PropertyCallbackInfo@VValue@v8@@@2@@ZP6AX1V?$Local@VValue@v8@@@2@AEBV?$PropertyCallbackInfo@X@2@@ZV?$MaybeLocal@VValue@v8@@@2@W4AccessControl@2@W4PropertyAttribute@2@W4SideEffectType@2@W4SideEffectType@2@@Z
?SetAccessor@ObjectTemplate@v8@@QEAAXV?$Local@VName@v8@@@2@P6AX0AEBV?$PropertyCallbackInfo@VValue@v8@@@2@@ZP6AX0V?$Local@VValue@v8@@@2@AEBV?$PropertyCallbackInfo@X@2@@Z3W4AccessControl@2@W4PropertyAttribute@2@V?$Local@VAccessorSignature@v8@@@2@W4SideEffectType@2@9@Z
?SetAccessor@ObjectTemplate@v8@@QEAAXV?$Local@VString@v8@@@2@P6AX0AEBV?$PropertyCallbackInfo@VValue@v8@@@2@@ZP6AX0V?$Local@VValue@v8@@@2@AEBV?$PropertyCallbackInfo@X@2@@Z3W4AccessControl@2@W4PropertyAttribute@2@V?$Local@VAccessorSignature@v8@@@2@W4SideEffectType@2@9@Z
?SetAccessorProperty@Object@v8@@QEAAXV?$Local@VName@v8@@@2@V?$Local@VFunction@v8@@@2@1W4PropertyAttribute@2@W4AccessControl@2@@Z
?SetAccessorProperty@Template@v8@@QEAAXV?$Local@VName@v8@@@2@V?$Local@VFunctionTemplate@v8@@@2@1W4PropertyAttribute@2@W4AccessControl@2@@Z
?SetAddCrashKeyCallback@Isolate@v8@@QEAAXP6AXW4CrashKeyId@2@AEBV?$basic_string@DU?$char_traits@D@__1@std@@V?$allocator@D@23@@__1@std@@@Z@Z
?SetAddHistogramSampleFunction@Isolate@v8@@QEAAXP6AXPEAXH@Z@Z
?SetAgent@TraceEventHelper@tracing@node@@SAXPEAVAgent@23@@Z
?SetAlignedPointerInEmbedderData@Context@v8@@QEAAXHPEAX@Z
?SetAlignedPointerInInternalField@Object@v8@@QEAAXHPEAX@Z
?SetAlignedPointerInInternalFields@Object@v8@@QEAAXHQEAHQEAPEAX@Z
?SetAllowAtomicsWait@Isolate@v8@@QEAAX_N@Z
?SetAllowCodeGenerationFromStringsCallback@Isolate@v8@@QEAAXP6A_NV?$Local@VContext@v8@@@2@V?$Local@VString@v8@@@2@@Z@Z
?SetAllowWasmCodeGenerationCallback@Isolate@v8@@QEAAXP6A_NV?$Local@VContext@v8@@@2@V?$Local@VString@v8@@@2@@Z@Z
?SetAtomicsWaitCallback@Isolate@v8@@QEAAXP6AXW4AtomicsWaitEvent@12@V?$Local@VSharedArrayBuffer@v8@@@2@_K_JNPEAVAtomicsWaitWakeHandle@12@PEAX@Z5@Z
?SetBookmark@ExternalSourceStream@ScriptCompiler@v8@@UEAA_NXZ
?SetCallAsFunctionHandler@ObjectTemplate@v8@@QEAAXP6AXAEBV?$FunctionCallbackInfo@VValue@v8@@@2@@ZV?$Local@VValue@v8@@@2@@Z
?SetCallHandler@FunctionTemplate@v8@@QEAAXP6AXAEBV?$FunctionCallbackInfo@VValue@v8@@@2@@ZV?$Local@VValue@v8@@@2@W4SideEffectType@2@@Z
?SetCaptureMessage@TryCatch@v8@@QEAAX_N@Z
?SetCaptureStackTraceForUncaughtExceptions@Isolate@v8@@QEAAX_NHW4StackTraceOptions@StackTrace@2@@Z
?SetClassName@FunctionTemplate@v8@@QEAAXV?$Local@VString@v8@@@2@@Z
?SetClient@WasmStreaming@v8@@QEAAXV?$shared_ptr@VClient@WasmStreaming@v8@@@__1@std@@@Z
?SetCompiledModuleBytes@WasmStreaming@v8@@QEAA_NPEBE_K@Z
?SetCounterFunction@Isolate@v8@@QEAAXP6APEAHPEBD@Z@Z
?SetCreateHistogramFunction@Isolate@v8@@QEAAXP6APEAXPEBDHH_K@Z@Z
?SetData@Isolate@v8@@QEAAXIPEAX@Z
?SetDcheckErrorHandler@V8@v8@@SAXP6AXPEBDH0@Z@Z
?SetDefaultContext@SnapshotCreator@v8@@QEAAXV?$Local@VContext@v8@@@2@USerializeInternalFieldsCallback@2@@Z
?SetDetachedWindowReason@Context@v8@@QEAAXW4DetachedWindowReason@12@@Z
?SetEmbedderData@Context@v8@@QEAAXHV?$Local@VValue@v8@@@2@@Z
?SetEmbedderHeapTracer@Isolate@v8@@QEAAXPEAVEmbedderHeapTracer@2@@Z
?SetEntropySource@V8@v8@@SAXP6A_NPEAE_K@Z@Z
?SetErrorMessageForCodeGenerationFromStrings@Context@v8@@QEAAXV?$Local@VString@v8@@@2@@Z
?SetEventLogger@Isolate@v8@@QEAAXP6AXPEBDH@Z@Z
?SetExpectInlineWasm@ValueDeserializer@v8@@QEAAX_N@Z
?SetFailedAccessCheckCallbackFunction@Isolate@v8@@QEAAXP6AXV?$Local@VObject@v8@@@2@W4AccessType@2@V?$Local@VValue@v8@@@2@@Z@Z
?SetFatalErrorHandler@Isolate@v8@@QEAAXP6AXPEBD0@Z@Z
?SetFinalizationCallbackTraced@V8@v8@@CAXPEA_KPEAXP6AXAEBV?$WeakCallbackInfo@X@2@@Z@Z
?SetFlagsFromCommandLine@V8@v8@@SAXPEAHPEAPEAD_N@Z
?SetFlagsFromString@V8@v8@@SAXPEBD@Z
?SetFlagsFromString@V8@v8@@SAXPEBD_K@Z
?SetGetExternallyAllocatedMemoryInBytesCallback@Isolate@v8@@QEAAXP6A_KXZ@Z
?SetHandler@ObjectTemplate@v8@@QEAAXAEBUIndexedPropertyHandlerConfiguration@2@@Z
?SetHandler@ObjectTemplate@v8@@QEAAXAEBUNamedPropertyHandlerConfiguration@2@@Z
?SetHostCleanupFinalizationGroupCallback@Isolate@v8@@QEAAXP6AXV?$Local@VContext@v8@@@2@V?$Local@VFinalizationGroup@v8@@@2@@Z@Z
?SetHostImportModuleDynamicallyCallback@Isolate@v8@@QEAAXP6A?AV?$MaybeLocal@VPromise@v8@@@2@V?$Local@VContext@v8@@@2@V?$Local@VScriptOrModule@v8@@@2@V?$Local@VString@v8@@@2@@Z@Z
?SetHostInitializeImportMetaObjectCallback@Isolate@v8@@QEAAXP6AXV?$Local@VContext@v8@@@2@V?$Local@VModule@v8@@@2@V?$Local@VObject@v8@@@2@@Z@Z
?SetIdle@Isolate@v8@@QEAAX_N@Z
?SetImmutableProto@ObjectTemplate@v8@@QEAAXXZ
?SetIndexedPropertyHandler@ObjectTemplate@v8@@QEAAXP6AXIAEBV?$PropertyCallbackInfo@VValue@v8@@@2@@ZP6AXIV?$Local@VValue@v8@@@2@0@ZP6AXIAEBV?$PropertyCallbackInfo@VInteger@v8@@@2@@ZP6AXIAEBV?$PropertyCallbackInfo@VBoolean@v8@@@2@@ZP6AXAEBV?$PropertyCallbackInfo@VArray@v8@@@2@@Z2@Z
?SetIntegrityLevel@Object@v8@@QEAA?AV?$Maybe@_N@2@V?$Local@VContext@v8@@@2@W4IntegrityLevel@2@@Z
?SetInternalField@Object@v8@@QEAAXHV?$Local@VValue@v8@@@2@@Z
?SetInternalFieldCount@ObjectTemplate@v8@@QEAAXH@Z
?SetIntrinsicDataProperty@Template@v8@@QEAAXV?$Local@VName@v8@@@2@W4Intrinsic@2@W4PropertyAttribute@2@@Z
?SetIsolateUpForNode@node@@YAXPEAVIsolate@v8@@@Z
?SetJitCodeEventHandler@Isolate@v8@@QEAAXW4JitCodeEventOptions@2@P6AXPEBUJitCodeEvent@2@@Z@Z
?SetLazyDataProperty@Object@v8@@QEAA?AV?$Maybe@_N@2@V?$Local@VContext@v8@@@2@V?$Local@VName@v8@@@2@P6AX1AEBV?$PropertyCallbackInfo@VValue@v8@@@2@@ZV?$Local@VValue@v8@@@2@W4PropertyAttribute@2@W4SideEffectType@2@6@Z
?SetLazyDataProperty@Template@v8@@QEAAXV?$Local@VName@v8@@@2@P6AX0AEBV?$PropertyCallbackInfo@VValue@v8@@@2@@ZV?$Local@VValue@v8@@@2@W4PropertyAttribute@2@W4SideEffectType@2@5@Z
?SetLength@FunctionTemplate@v8@@QEAAXH@Z
?SetMaxAsyncTaskStacksForTest@v8_inspector@@YAXPEAVV8Inspector@1@H@Z
?SetMicrotasksPolicy@Isolate@v8@@QEAAXW4MicrotasksPolicy@2@@Z
?SetModifyCodeGenerationFromStringsCallback@Isolate@v8@@QEAAXP6A?AUModifyCodeGenerationFromStringsResult@2@V?$Local@VContext@v8@@@2@V?$Local@VValue@v8@@@2@@Z@Z
?SetName@Function@v8@@QEAAXV?$Local@VString@v8@@@2@@Z
?SetNativeDataProperty@Object@v8@@QEAA?AV?$Maybe@_N@2@V?$Local@VContext@v8@@@2@V?$Local@VName@v8@@@2@P6AX1AEBV?$PropertyCallbackInfo@VValue@v8@@@2@@ZP6AX1V?$Local@VValue@v8@@@2@AEBV?$PropertyCallbackInfo@X@2@@Z4W4PropertyAttribute@2@W4SideEffectType@2@8@Z
?SetNativeDataProperty@Template@v8@@QEAAXV?$Local@VName@v8@@@2@P6AX0AEBV?$PropertyCallbackInfo@VValue@v8@@@2@@ZP6AX0V?$Local@VValue@v8@@@2@AEBV?$PropertyCallbackInfo@X@2@@Z3W4PropertyAttribute@2@V?$Local@VAccessorSignature@v8@@@2@W4AccessControl@2@W4SideEffectType@2@9@Z
?SetNativeDataProperty@Template@v8@@QEAAXV?$Local@VString@v8@@@2@P6AX0AEBV?$PropertyCallbackInfo@VValue@v8@@@2@@ZP6AX0V?$Local@VValue@v8@@@2@AEBV?$PropertyCallbackInfo@X@2@@Z3W4PropertyAttribute@2@V?$Local@VAccessorSignature@v8@@@2@W4AccessControl@2@W4SideEffectType@2@9@Z
?SetOOMErrorHandler@Isolate@v8@@QEAAXP6AXPEBD_N@Z@Z
?SetParentHandle@Agent@inspector@node@@QEAAXV?$unique_ptr@VParentInspectorHandle@inspector@node@@U?$default_delete@VParentInspectorHandle@inspector@node@@@__1@std@@@__1@std@@@Z
?SetPrepareStackTraceCallback@Isolate@v8@@QEAAXP6A?AV?$MaybeLocal@VValue@v8@@@2@V?$Local@VContext@v8@@@2@V?$Local@VValue@v8@@@2@V?$Local@VArray@v8@@@2@@Z@Z
?SetPrivate@Object@v8@@QEAA?AV?$Maybe@_N@2@V?$Local@VContext@v8@@@2@V?$Local@VPrivate@v8@@@2@V?$Local@VValue@v8@@@2@@Z
?SetPrivate@Template@v8@@QEAAXV?$Local@VPrivate@v8@@@2@V?$Local@VData@v8@@@2@W4PropertyAttribute@2@@Z
?SetPromiseHook@Isolate@v8@@QEAAXP6AXW4PromiseHookType@2@V?$Local@VPromise@v8@@@2@V?$Local@VValue@v8@@@2@@Z@Z
?SetPromiseRejectCallback@Isolate@v8@@QEAAXP6AXVPromiseRejectMessage@2@@Z@Z
?SetPrototype@Object@v8@@QEAA?AV?$Maybe@_N@2@V?$Local@VContext@v8@@@2@V?$Local@VValue@v8@@@2@@Z
?SetPrototypeProviderTemplate@FunctionTemplate@v8@@QEAAXV?$Local@VFunctionTemplate@v8@@@2@@Z
?SetRAILMode@Isolate@v8@@QEAAXW4RAILMode@2@@Z
?SetReturnAddressLocationResolver@V8@v8@@SAXP6A_K_K@Z@Z
?SetSamplingInterval@CpuProfiler@v8@@QEAAXH@Z
?SetSecurityToken@Context@v8@@QEAAXV?$Local@VValue@v8@@@2@@Z
?SetSnapshotDataBlob@V8@v8@@SAXPEAVStartupData@2@@Z
?SetStackLimit@Isolate@v8@@QEAAX_K@Z
?SetStressRunType@Testing@v8@@SAXW4StressType@12@@Z
?SetSupportsLegacyWireFormat@ValueDeserializer@v8@@QEAAX_N@Z
?SetSyntheticModuleExport@Module@v8@@QEAA?AV?$Maybe@_N@2@PEAVIsolate@2@V?$Local@VString@v8@@@2@V?$Local@VValue@v8@@@2@@Z
?SetSyntheticModuleExport@Module@v8@@QEAAXV?$Local@VString@v8@@@2@V?$Local@VValue@v8@@@2@@Z
?SetTreatArrayBufferViewsAsHostObjects@ValueSerializer@v8@@QEAAX_N@Z
?SetUnhandledExceptionCallback@V8@v8@@SAXP6AHPEAU_EXCEPTION_POINTERS@@@Z@Z
?SetUseCounterCallback@Isolate@v8@@QEAAXP6AXPEAV12@W4UseCounterFeature@12@@Z@Z
?SetUsePreciseSampling@CpuProfiler@v8@@QEAAX_N@Z
?SetVerbose@TryCatch@v8@@QEAAX_N@Z
?SetWasmInstanceCallback@Isolate@v8@@QEAAXP6A_NAEBV?$FunctionCallbackInfo@VValue@v8@@@2@@Z@Z
?SetWasmLoadSourceMapCallback@Isolate@v8@@QEAAXP6A?AV?$Local@VString@v8@@@2@PEAV12@PEBD@Z@Z
?SetWasmModuleCallback@Isolate@v8@@QEAAXP6A_NAEBV?$FunctionCallbackInfo@VValue@v8@@@2@@Z@Z
?SetWasmStreamingCallback@Isolate@v8@@QEAAXP6AXAEBV?$FunctionCallbackInfo@VValue@v8@@@2@@Z@Z
?SetWasmThreadsEnabledCallback@Isolate@v8@@QEAAXP6A_NV?$Local@VContext@v8@@@2@@Z@Z
?shared_from_this@?$enable_shared_from_this@VCounters@V8Inspector@v8_inspector@@@__1@std@@QEAA?AV?$shared_ptr@VCounters@V8Inspector@v8_inspector@@@23@XZ
?shared_from_this@?$enable_shared_from_this@VCounters@V8Inspector@v8_inspector@@@__1@std@@QEBA?AV?$shared_ptr@$$CBVCounters@V8Inspector@v8_inspector@@@23@XZ
?ShouldThrowOnError@internal@v8@@YA_NPEAVIsolate@12@@Z
?shrink_to_fit@?$vector@UCpuProfileDeoptFrame@v8@@V?$allocator@UCpuProfileDeoptFrame@v8@@@__1@std@@@__1@std@@QEAAXXZ
?shrink_to_fit@?$vector@UCpuProfileDeoptInfo@v8@@V?$allocator@UCpuProfileDeoptInfo@v8@@@__1@std@@@__1@std@@QEAAXXZ
?ShutdownPlatform@V8@v8@@SAXXZ
?size@?$MemorySpan@$$CBE@v8@@QEBA_KXZ
?size@?$vector@UCpuProfileDeoptFrame@v8@@V?$allocator@UCpuProfileDeoptFrame@v8@@@__1@std@@@__1@std@@QEBA_KXZ
?size@?$vector@UCpuProfileDeoptInfo@v8@@V?$allocator@UCpuProfileDeoptInfo@v8@@@__1@std@@@__1@std@@QEBA_KXZ
?Size@Map@v8@@QEBA_KXZ
?Size@Set@v8@@QEBA_KXZ
?SlowGetAlignedPointerFromEmbedderData@Context@v8@@AEAAPEAXH@Z
?SlowGetAlignedPointerFromInternalField@Object@v8@@AEAAPEAXH@Z
?SlowGetEmbedderData@Context@v8@@AEAA?AV?$Local@VValue@v8@@@2@H@Z
?SlowGetInternalField@Object@v8@@AEAA?AV?$Local@VValue@v8@@@2@H@Z
?soname_@Version@internal@v8@@0PEBDEB
?source@Extension@v8@@QEBAPEBVExternalOneByteStringResource@String@2@XZ
?source_length@Extension@v8@@QEBA_KXZ
?space_available_size@HeapSpaceStatistics@v8@@QEAA_KXZ
?space_name@HeapSpaceStatistics@v8@@QEAAPEBDXZ
?space_size@HeapSpaceStatistics@v8@@QEAA_KXZ
?space_used_size@HeapSpaceStatistics@v8@@QEAA_KXZ
?SplitHostPort@options_parser@node@@YA?AVHostPort@2@AEBV?$basic_string@DU?$char_traits@D@__1@std@@V?$allocator@D@23@@__1@std@@PEAV?$vector@V?$basic_string@DU?$char_traits@D@__1@std@@V?$allocator@D@23@@__1@std@@V?$allocator@V?$basic_string@DU?$char_traits@D@__1@std@@V?$allocator@D@23@@__1@std@@@23@@56@@Z
?stack_limit@ResourceConstraints@v8@@QEBAPEAIXZ
?StackTrace@TryCatch@v8@@QEBA?AV?$MaybeLocal@VValue@v8@@@2@V?$Local@VContext@v8@@@2@@Z
?Start@Agent@inspector@node@@QEAA_NAEBV?$basic_string@DU?$char_traits@D@__1@std@@V?$allocator@D@23@@__1@std@@AEBVDebugOptions@3@V?$shared_ptr@VHostPort@node@@@56@_N@Z
?Start@node@@YAHHQEAPEAD@Z
?StartIoThread@Agent@inspector@node@@QEAA_NXZ
?StartProfiling@CpuProfiler@v8@@QEAAXV?$Local@VString@v8@@@2@_N@Z
?StartProfiling@CpuProfiler@v8@@QEAAXV?$Local@VString@v8@@@2@VCpuProfilingOptions@2@@Z
?StartProfiling@CpuProfiler@v8@@QEAAXV?$Local@VString@v8@@@2@W4CpuProfilingMode@2@_NI@Z
?startRepeatingTimer@V8InspectorClient@v8_inspector@@UEAAXNP6AXPEAX@Z0@Z
?StartSamplingHeapProfiler@HeapProfiler@v8@@QEAA_N_KHW4SamplingFlags@12@@Z
?StartStreamingScript@ScriptCompiler@v8@@SAPEAVScriptStreamingTask@12@PEAVIsolate@2@PEAVStreamedSource@12@W4CompileOptions@12@@Z
?StartTrackingHeapObjects@HeapProfiler@v8@@QEAAX_N@Z
?State@Promise@v8@@QEAA?AW4PromiseState@12@XZ
?Stop@Agent@inspector@node@@QEAAXXZ
?Stop@node@@YAHPEAVEnvironment@1@@Z
?StopProfiling@CpuProfiler@v8@@QEAAPEAVCpuProfile@2@V?$Local@VString@v8@@@2@@Z
?StopSamplingHeapProfiler@HeapProfiler@v8@@QEAAXXZ
?StopTrackingHeapObjects@HeapProfiler@v8@@QEAAXXZ
?StrictEquals@Value@v8@@QEBA_NV?$Local@VValue@v8@@@2@@Z
?StringEquals@String@v8@@QEAA_NV?$Local@VString@v8@@@2@@Z
?Stringify@JSON@v8@@SA?AV?$MaybeLocal@VString@v8@@@2@V?$Local@VContext@v8@@@2@V?$Local@VValue@v8@@@2@V?$Local@VString@v8@@@2@@Z
?swap@?$vector@UCpuProfileDeoptFrame@v8@@V?$allocator@UCpuProfileDeoptFrame@v8@@@__1@std@@@__1@std@@QEAAXAEAV123@@Z
?swap@?$vector@UCpuProfileDeoptInfo@v8@@V?$allocator@UCpuProfileDeoptInfo@v8@@@__1@std@@@__1@std@@QEAAXAEAV123@@Z
?SyntaxError@Exception@v8@@SA?AV?$Local@VValue@v8@@@2@V?$Local@VString@v8@@@2@@Z
?SystemClockTimeMillis@Platform@v8@@KANXZ
?TakeHeapSnapshot@HeapProfiler@v8@@QEAAPEBVHeapSnapshot@2@PEAVActivityControl@2@PEAVObjectNameResolver@12@@Z
?TerminateExecution@Isolate@v8@@QEAAXXZ
?Then@Promise@v8@@QEAA?AV?$MaybeLocal@VPromise@v8@@@2@V?$Local@VContext@v8@@@2@V?$Local@VFunction@v8@@@2@1@Z
?Then@Promise@v8@@QEAA?AV?$MaybeLocal@VPromise@v8@@@2@V?$Local@VContext@v8@@@2@V?$Local@VFunction@v8@@@2@@Z
?ThrowException@Isolate@v8@@QEAA?AV?$Local@VValue@v8@@@2@V32@@Z
?ToArrayIndex@Value@v8@@QEBA?AV?$MaybeLocal@VUint32@v8@@@2@V?$Local@VContext@v8@@@2@@Z
?ToBigInt@Value@v8@@QEBA?AV?$MaybeLocal@VBigInt@v8@@@2@V?$Local@VContext@v8@@@2@@Z
?ToBoolean@Value@v8@@QEBA?AV?$Local@VBoolean@v8@@@2@PEAVIsolate@2@@Z
?ToBoolean@Value@v8@@QEBA?AV?$Local@VBoolean@v8@@@2@XZ
?ToDetailString@Value@v8@@QEBA?AV?$MaybeLocal@VString@v8@@@2@V?$Local@VContext@v8@@@2@@Z
?ToggleAsyncHook@Agent@inspector@node@@AEAAXPEAVIsolate@v8@@AEBV?$Global@VFunction@v8@@@5@@Z
?ToInt32@Value@v8@@QEBA?AV?$MaybeLocal@VInt32@v8@@@2@V?$Local@VContext@v8@@@2@@Z
?ToInteger@Value@v8@@QEBA?AV?$Local@VInteger@v8@@@2@XZ
?ToInteger@Value@v8@@QEBA?AV?$MaybeLocal@VInteger@v8@@@2@V?$Local@VContext@v8@@@2@@Z
?ToLocalEmpty@V8@v8@@CAXXZ
?ToNumber@Value@v8@@QEBA?AV?$MaybeLocal@VNumber@v8@@@2@V?$Local@VContext@v8@@@2@@Z
?ToObject@Value@v8@@QEBA?AV?$Local@VObject@v8@@@2@XZ
?ToObject@Value@v8@@QEBA?AV?$MaybeLocal@VObject@v8@@@2@V?$Local@VContext@v8@@@2@@Z
?ToString@V8StackTraceId@v8_inspector@@QEAA?AV?$unique_ptr@VStringBuffer@v8_inspector@@U?$default_delete@VStringBuffer@v8_inspector@@@__1@std@@@__1@std@@XZ
?ToString@Value@v8@@QEBA?AV?$Local@VString@v8@@@2@XZ
?ToString@Value@v8@@QEBA?AV?$MaybeLocal@VString@v8@@@2@V?$Local@VContext@v8@@@2@@Z
?total_available_size@HeapStatistics@v8@@QEAA_KXZ
?total_heap_size@HeapStatistics@v8@@QEAA_KXZ
?total_heap_size_executable@HeapStatistics@v8@@QEAA_KXZ
?total_physical_size@HeapStatistics@v8@@QEAA_KXZ
?ToUint32@Value@v8@@QEBA?AV?$MaybeLocal@VUint32@v8@@@2@V?$Local@VContext@v8@@@2@@Z
?ToWordsArray@BigInt@v8@@QEBAXPEAH0PEA_K@Z
?TraceEpilogue@EmbedderHeapTracer@v8@@UEAAXPEAUTraceSummary@12@@Z
?TracePrologue@EmbedderHeapTracer@v8@@UEAAXW4TraceFlags@12@@Z
?TransferArrayBuffer@ValueDeserializer@v8@@QEAAXIV?$Local@VArrayBuffer@v8@@@2@@Z
?TransferArrayBuffer@ValueSerializer@v8@@QEAAXIV?$Local@VArrayBuffer@v8@@@2@@Z
?TransferSharedArrayBuffer@ValueDeserializer@v8@@QEAAXIV?$Local@VSharedArrayBuffer@v8@@@2@@Z
?TryHandleWebAssemblyTrapWindows@v8@@YA_NPEAU_EXCEPTION_POINTERS@@@Z
?TryUnwindV8Frames@Unwinder@v8@@SA_NAEBUUnwindState@2@PEAURegisterState@2@PEBX@Z
?TypeError@Exception@v8@@SA?AV?$Local@VValue@v8@@@2@V?$Local@VString@v8@@@2@@Z
?TypeOf@Value@v8@@QEAA?AV?$Local@VString@v8@@@2@PEAVIsolate@2@@Z
?Uint32Value@Value@v8@@QEBA?AV?$Maybe@I@2@V?$Local@VContext@v8@@@2@@Z
?Uint32Value@Value@v8@@QEBAIXZ
?Uint64Value@BigInt@v8@@QEBA_KPEA_N@Z
?unchecked_cast@OSROptimizedCodeCache@internal@v8@@SA?AV123@VObject@23@@Z
?Unlock@ExternalStringResourceBase@String@v8@@MEBAXXZ
?unmuteMetrics@V8InspectorClient@v8_inspector@@UEAAXH@Z
?Unpack@WasmStreaming@v8@@SA?AV?$shared_ptr@VWasmStreaming@v8@@@__1@std@@PEAVIsolate@2@V?$Local@VValue@v8@@@2@@Z
?used_heap_size@HeapStatistics@v8@@QEAA_KXZ
?UseDefaultSecurityToken@Context@v8@@QEAAXXZ
?UseDetailedSourcePositionsForProfiling@CpuProfiler@v8@@SAXPEAVIsolate@2@@Z
?utf8@String16@v8_inspector@@QEBA?AV?$basic_string@DU?$char_traits@D@__1@std@@V?$allocator@D@23@@__1@std@@XZ
?Utf8Length@String@v8@@QEBAHPEAVIsolate@2@@Z
?Utf8Length@String@v8@@QEBAHXZ
?UVException@node@@YA?AV?$Local@VValue@v8@@@v8@@PEAVIsolate@3@HPEBD111@Z
?Value@Boolean@v8@@QEBA_NXZ
?Value@External@v8@@QEBAPEAXXZ
?Value@Int32@v8@@QEBAHXZ
?Value@Integer@v8@@QEBA_JXZ
?Value@Number@v8@@QEBANXZ
?value@PropertyDescriptor@v8@@QEBA?AV?$Local@VValue@v8@@@2@XZ
?Value@Uint32@v8@@QEBAIXZ
?ValueOf@BigIntObject@v8@@QEBA?AV?$Local@VBigInt@v8@@@2@XZ
?ValueOf@BooleanObject@v8@@QEBA_NXZ
?ValueOf@Date@v8@@QEBANXZ
?ValueOf@NumberObject@v8@@QEBANXZ
?ValueOf@StringObject@v8@@QEBA?AV?$Local@VString@v8@@@2@XZ
?ValueOf@SymbolObject@v8@@QEBA?AV?$Local@VSymbol@v8@@@2@XZ
?valueSubtype@V8InspectorClient@v8_inspector@@UEAA?AV?$unique_ptr@VStringBuffer@v8_inspector@@U?$default_delete@VStringBuffer@v8_inspector@@@__1@std@@@__1@std@@V?$Local@VValue@v8@@@v8@@@Z
?VerifyExternalStringResource@String@v8@@AEBAXPEAVExternalStringResource@12@@Z
?VerifyExternalStringResourceBase@String@v8@@AEBAXPEAVExternalStringResourceBase@12@W4Encoding@12@@Z
?version_string_@Version@internal@v8@@0PEBDEB
?VisitExternalResources@Isolate@v8@@QEAAXPEAVExternalResourceVisitor@2@@Z
?VisitExternalString@ExternalResourceVisitor@v8@@UEAAXV?$Local@VString@v8@@@2@@Z
?VisitHandlesWithClassIds@Isolate@v8@@QEAAXPEAVPersistentHandleVisitor@2@@Z
?VisitPersistentHandle@PersistentHandleVisitor@v8@@UEAAXPEAV?$Persistent@VValue@v8@@V?$NonCopyablePersistentTraits@VValue@v8@@@2@@2@G@Z
?VisitTracedGlobalHandle@TracedGlobalHandleVisitor@EmbedderHeapTracer@v8@@UEAAXAEBV?$TracedGlobal@VValue@v8@@@3@@Z
?VisitTracedReference@TracedGlobalHandleVisitor@EmbedderHeapTracer@v8@@UEAAXAEBV?$TracedReference@VValue@v8@@@3@@Z
?VisitWeakHandles@Isolate@v8@@QEAAXPEAVPersistentHandleVisitor@2@@Z
?wait_for_connect@DebugOptions@node@@QEBA_NXZ
?WaitForConnect@Agent@inspector@node@@QEAAXXZ
?WaitForDisconnect@Agent@inspector@node@@QEAAXXZ
?Wake@AtomicsWaitWakeHandle@Isolate@v8@@QEAAXXZ
?WillWaitForConnect@Agent@inspector@node@@QEAA_NXZ
?WinapiErrnoException@node@@YA?AV?$Local@VValue@v8@@@v8@@PEAVIsolate@3@HPEBD11@Z
?WordCount@BigInt@v8@@QEBAHXZ
?writable@PropertyDescriptor@v8@@QEBA_NXZ
?Write@String@v8@@QEBAHPEAGHHH@Z
?Write@String@v8@@QEBAHPEAVIsolate@2@PEAGHHH@Z
?WriteDouble@ValueSerializer@v8@@QEAAXN@Z
?WriteHeader@ValueSerializer@v8@@QEAAXXZ
?WriteHeapStatsChunk@OutputStream@v8@@UEAA?AW4WriteResult@12@PEAUHeapStatsUpdate@2@H@Z
?WriteHostObject@Delegate@ValueSerializer@v8@@UEAA?AV?$Maybe@_N@3@PEAVIsolate@3@V?$Local@VObject@v8@@@3@@Z
?WriteOneByte@String@v8@@QEBAHPEAEHHH@Z
?WriteOneByte@String@v8@@QEBAHPEAVIsolate@2@PEAEHHH@Z
?WriteRawBytes@ValueSerializer@v8@@QEAAXPEBX_K@Z
?WriteUint32@ValueSerializer@v8@@QEAAXI@Z
?WriteUint64@ValueSerializer@v8@@QEAAX_K@Z
?WriteUtf8@String@v8@@QEBAHPEADHPEAHH@Z
?WriteUtf8@String@v8@@QEBAHPEAVIsolate@2@PEADHPEAHH@Z
?WriteValue@ValueSerializer@v8@@QEAA?AV?$Maybe@_N@2@V?$Local@VContext@v8@@@2@V?$Local@VValue@v8@@@2@@Z
?XHR@ReasonEnum@Paused@API@Debugger@protocol@v8_inspector@@3PEBDEB
adler32
adler32_combine
adler32_z
compress
compress2
compressBound
CrashForExceptionInNonABICompliantCodeRange
crc32
crc32_combine
crc32_z
deflate
deflateBound
deflateCopy
deflateEnd
deflateGetDictionary
deflateInit2_
deflateInit_
deflateParams
deflatePending
deflatePrime
deflateReset
deflateResetKeep
deflateSetDictionary
deflateSetHeader
deflateTune
get_crc_table
GetHandleVerifier
gzbuffer
gzclearerr
gzclose
gzclose_r
gzclose_w
gzdirect
gzdopen
gzeof
gzerror
gzflush
gzfread
gzfwrite
gzgetc
gzgetc_
gzgets
gzoffset
gzoffset64
gzopen
gzopen64
gzopen_w
gzprintf
gzputc
gzputs
gzread
gzrewind
gzseek
gzseek64
gzsetparams
gztell
gztell64
gzungetc
gzvprintf
gzwrite
inflate
inflateBack
inflateBackEnd
inflateBackInit_
inflateCodesUsed
inflateCopy
inflateEnd
inflateGetDictionary
inflateGetHeader
inflateInit2_
inflateInit_
inflateMark
inflatePrime
inflateReset
inflateReset2
inflateResetKeep
inflateSetDictionary
inflateSync
inflateSyncPoint
inflateUndermine
inflateValidate
IsSandboxedProcess
napi_acquire_threadsafe_function
napi_add_env_cleanup_hook
napi_add_finalizer
napi_adjust_external_memory
napi_async_destroy
napi_async_init
napi_call_function
napi_call_threadsafe_function
napi_cancel_async_work
napi_close_callback_scope
napi_close_escapable_handle_scope
napi_close_handle_scope
napi_coerce_to_bool
napi_coerce_to_number
napi_coerce_to_object
napi_coerce_to_string
napi_create_array
napi_create_array_with_length
napi_create_arraybuffer
napi_create_async_work
napi_create_bigint_int64
napi_create_bigint_uint64
napi_create_bigint_words
napi_create_buffer
napi_create_buffer_copy
napi_create_dataview
napi_create_date
napi_create_double
napi_create_error
napi_create_external
napi_create_external_arraybuffer
napi_create_external_buffer
napi_create_function
napi_create_int32
napi_create_int64
napi_create_object
napi_create_promise
napi_create_range_error
napi_create_reference
napi_create_string_latin1
napi_create_string_utf16
napi_create_string_utf8
napi_create_symbol
napi_create_threadsafe_function
napi_create_type_error
napi_create_typedarray
napi_create_uint32
napi_define_class
napi_define_properties
napi_delete_async_work
napi_delete_element
napi_delete_property
napi_delete_reference
napi_escape_handle
napi_fatal_error
napi_fatal_exception
napi_get_and_clear_last_exception
napi_get_array_length
napi_get_arraybuffer_info
napi_get_boolean
napi_get_buffer_info
napi_get_cb_info
napi_get_dataview_info
napi_get_date_value
napi_get_element
napi_get_global
napi_get_instance_data
napi_get_last_error_info
napi_get_named_property
napi_get_new_target
napi_get_node_version
napi_get_null
napi_get_property
napi_get_property_names
napi_get_prototype
napi_get_reference_value
napi_get_threadsafe_function_context
napi_get_typedarray_info
napi_get_undefined
napi_get_uv_event_loop
napi_get_value_bigint_int64
napi_get_value_bigint_uint64
napi_get_value_bigint_words
napi_get_value_bool
napi_get_value_double
napi_get_value_external
napi_get_value_int32
napi_get_value_int64
napi_get_value_string_latin1
napi_get_value_string_utf16
napi_get_value_string_utf8
napi_get_value_uint32
napi_get_version
napi_has_element
napi_has_named_property
napi_has_own_property
napi_has_property
napi_instanceof
napi_is_array
napi_is_arraybuffer
napi_is_buffer
napi_is_dataview
napi_is_date
napi_is_error
napi_is_exception_pending
napi_is_promise
napi_is_typedarray
napi_make_callback
napi_module_register
napi_new_instance
napi_open_callback_scope
napi_open_escapable_handle_scope
napi_open_handle_scope
napi_queue_async_work
napi_ref_threadsafe_function
napi_reference_ref
napi_reference_unref
napi_reject_deferred
napi_release_threadsafe_function
napi_remove_env_cleanup_hook
napi_remove_wrap
napi_resolve_deferred
napi_run_script
napi_set_element
napi_set_instance_data
napi_set_named_property
napi_set_property
napi_strict_equals
napi_throw
napi_throw_error
napi_throw_range_error
napi_throw_type_error
napi_typeof
napi_unref_threadsafe_function
napi_unwrap
napi_wrap
node_module_register
uncompress
uncompress2
uv_accept
uv_async_init
uv_async_send
uv_backend_fd
uv_backend_timeout
uv_barrier_destroy
uv_barrier_init
uv_barrier_wait
uv_buf_init
uv_cancel
uv_chdir
uv_check_init
uv_check_start
uv_check_stop
uv_close
uv_cond_broadcast
uv_cond_destroy
uv_cond_init
uv_cond_signal
uv_cond_timedwait
uv_cond_wait
uv_cpu_info
uv_cwd
uv_default_loop
uv_disable_stdio_inheritance
uv_dlclose
uv_dlerror
uv_dlopen
uv_dlsym
uv_err_name
uv_err_name_r
uv_exepath
uv_fileno
uv_free_cpu_info
uv_free_interface_addresses
uv_freeaddrinfo
uv_fs_access
uv_fs_chmod
uv_fs_chown
uv_fs_close
uv_fs_closedir
uv_fs_copyfile
uv_fs_event_getpath
uv_fs_event_init
uv_fs_event_start
uv_fs_event_stop
uv_fs_fchmod
uv_fs_fchown
uv_fs_fdatasync
uv_fs_fstat
uv_fs_fsync
uv_fs_ftruncate
uv_fs_futime
uv_fs_get_path
uv_fs_get_ptr
uv_fs_get_result
uv_fs_get_statbuf
uv_fs_get_type
uv_fs_lchown
uv_fs_link
uv_fs_lstat
uv_fs_mkdir
uv_fs_mkdtemp
uv_fs_open
uv_fs_opendir
uv_fs_poll_getpath
uv_fs_poll_init
uv_fs_poll_start
uv_fs_poll_stop
uv_fs_read
uv_fs_readdir
uv_fs_readlink
uv_fs_realpath
uv_fs_rename
uv_fs_req_cleanup
uv_fs_rmdir
uv_fs_scandir
uv_fs_scandir_next
uv_fs_sendfile
uv_fs_stat
uv_fs_statfs
uv_fs_symlink
uv_fs_unlink
uv_fs_utime
uv_fs_write
uv_get_constrained_memory
uv_get_free_memory
uv_get_osfhandle
uv_get_process_title
uv_get_total_memory
uv_getaddrinfo
uv_getnameinfo
uv_getrusage
uv_gettimeofday
uv_guess_handle
uv_handle_get_data
uv_handle_get_loop
uv_handle_get_type
uv_handle_set_data
uv_handle_size
uv_handle_type_name
uv_has_ref
uv_hrtime
uv_idle_init
uv_idle_start
uv_idle_stop
uv_if_indextoiid
uv_if_indextoname
uv_inet_ntop
uv_inet_pton
uv_interface_addresses
uv_ip4_addr
uv_ip4_name
uv_ip6_addr
uv_ip6_name
uv_is_active
uv_is_closing
uv_is_readable
uv_is_writable
uv_key_create
uv_key_delete
uv_key_get
uv_key_set
uv_kill
uv_listen
uv_loadavg
uv_loop_alive
uv_loop_close
uv_loop_configure
uv_loop_delete
uv_loop_fork
uv_loop_get_data
uv_loop_init
uv_loop_new
uv_loop_set_data
uv_loop_size
uv_mutex_destroy
uv_mutex_init
uv_mutex_init_recursive
uv_mutex_lock
uv_mutex_trylock
uv_mutex_unlock
uv_now
uv_once
uv_open_osfhandle
uv_os_environ
uv_os_free_environ
uv_os_free_passwd
uv_os_get_passwd
uv_os_getenv
uv_os_gethostname
uv_os_getpid
uv_os_getppid
uv_os_getpriority
uv_os_homedir
uv_os_setenv
uv_os_setpriority
uv_os_tmpdir
uv_os_uname
uv_os_unsetenv
uv_pipe_bind
uv_pipe_chmod
uv_pipe_connect
uv_pipe_getpeername
uv_pipe_getsockname
uv_pipe_init
uv_pipe_open
uv_pipe_pending_count
uv_pipe_pending_instances
uv_pipe_pending_type
uv_poll_init
uv_poll_init_socket
uv_poll_start
uv_poll_stop
uv_prepare_init
uv_prepare_start
uv_prepare_stop
uv_print_active_handles
uv_print_all_handles
uv_process_get_pid
uv_process_kill
uv_queue_work
uv_read_start
uv_read_stop
uv_recv_buffer_size
uv_ref
uv_replace_allocator
uv_req_get_data
uv_req_get_type
uv_req_set_data
uv_req_size
uv_req_type_name
uv_resident_set_memory
uv_run
uv_rwlock_destroy
uv_rwlock_init
uv_rwlock_rdlock
uv_rwlock_rdunlock
uv_rwlock_tryrdlock
uv_rwlock_trywrlock
uv_rwlock_wrlock
uv_rwlock_wrunlock
uv_sem_destroy
uv_sem_init
uv_sem_post
uv_sem_trywait
uv_sem_wait
uv_send_buffer_size
uv_set_process_title
uv_setup_args
uv_shutdown
uv_signal_init
uv_signal_start
uv_signal_start_oneshot
uv_signal_stop
uv_spawn
uv_stop
uv_stream_get_write_queue_size
uv_stream_set_blocking
uv_strerror
uv_strerror_r
uv_tcp_bind
uv_tcp_close_reset
uv_tcp_connect
uv_tcp_getpeername
uv_tcp_getsockname
uv_tcp_init
uv_tcp_init_ex
uv_tcp_keepalive
uv_tcp_nodelay
uv_tcp_open
uv_tcp_simultaneous_accepts
uv_thread_create
uv_thread_create_ex
uv_thread_equal
uv_thread_join
uv_thread_self
uv_timer_again
uv_timer_get_repeat
uv_timer_init
uv_timer_set_repeat
uv_timer_start
uv_timer_stop
uv_translate_sys_error
uv_try_write
uv_tty_get_winsize
uv_tty_init
uv_tty_reset_mode
uv_tty_set_mode
uv_udp_bind
uv_udp_connect
uv_udp_get_send_queue_count
uv_udp_get_send_queue_size
uv_udp_getpeername
uv_udp_getsockname
uv_udp_init
uv_udp_init_ex
uv_udp_open
uv_udp_recv_start
uv_udp_recv_stop
uv_udp_send
uv_udp_set_broadcast
uv_udp_set_membership
uv_udp_set_multicast_interface
uv_udp_set_multicast_loop
uv_udp_set_multicast_ttl
uv_udp_set_source_membership
uv_udp_set_ttl
uv_udp_try_send
uv_unref
uv_update_time
uv_uptime
uv_version
uv_version_string
uv_walk
uv_write
uv_write2
zError
zlibCompileFlags
zlibVersion